00000400   4ef9 0000 0450                   JMP       A_00000450
00000406   4ef9 0000 044a                   JMP       A_0000044a

0000040C  DB "CP/M-68K V1.3 COPYRIGHT (C) 1982,1984,1985 Digital Research ",00

0000044A   4239 0000 55be                   CLR.B     A_000055be
00000450   4ff9 0000 5d7e                   LEA       A_00005d7e,A7
00000456   4239 0000 55be                   CLR.B     A_000055be
0000045C   4eb9 0000 6200                   JSR       A_00006200
00000462   33c0 0000 5642                   MOVE.W    D0,A_00005642
00000468   4239 0000 5d84                   CLR.B     A_00005d84
0000046E   4239 0000 5644                   CLR.B     A_00005644
00000474   4239 0000 5646                   CLR.B     A_00005646
0000047A   13fc 0001 0000 60be              MOVE.B    #0x0001,A_000060be
00000482   4279 0000 56c0                   CLR.W     A_000056c0
00000488   4279 0000 56c2                   CLR.W     A_000056c2
0000048E   4eb9 0000 4fd0                   JSR       A_00004fd0
00000494   4eb9 0000 2ce6                   JSR       A_00002ce6
0000049A   303c 0020                        MOVE.W    #0x0020,D0
0000049E   4281                             CLR       D1
000004A0   1239 0000 5642                   MOVE.B    A_00005642,D1
000004A6   4e42                             TRAP      #2
000004A8   4280                             CLR       D0
000004AA   303c 000e                        MOVE.W    #0x000e,D0
000004AE   4281                             CLR       D1
000004B0   3239 0000 5642                   MOVE.W    A_00005642,D1
000004B6   0241 00ff                        AND.W     #0xff,D1
000004BA   4e42                             TRAP      #2
000004BC   4ff9 0000 5d7e                   LEA       A_00005d7e,A7
000004C2   4eb9 0000 24f8                   JSR       A_000024f8
000004C8   60f2                             BRA       B_4bc
000004CA   302f 0004                        MOVE.W    (D_0004,A7),D0
000004CE   222f 0006                        MOVE      (D_0006,A7),D1
000004D2   4e42                             TRAP      #2
000004D4   4e75                             RTS
000004D6   223c 0000 56c2                   MOVE      #0x000056c2,D1
000004DC   303c 003f                        MOVE.W    #0x003f,D0
000004E0   4e42                             TRAP      #2
000004E2   23f9 0000 56c4 0000 56b0         MOVE      A_000056c4,A_000056b0
000004EC   23f9 0000 56c8 0000 56b4         MOVE      A_000056c8,A_000056b4
000004F6   23fc 0000 6150 0000 56ac         MOVE      #0x00006150,A_000056ac
00000500   703b                             MOVEQ     #0x3b,D0
00000502   223c 0000 56ac                   MOVE      #0x000056ac,D1
00000508   4e42                             TRAP      #2
0000050A   4a40                             TST.W     D0
0000050C   6600 0094                        BNE.L     B_5a2
00000510   3239 0000 60aa                   MOVE.W    A_000060aa,D1
00000516   7020                             MOVEQ     #0x20,D0
00000518   4e42                             TRAP      #2
0000051A   4281                             CLR       D1
0000051C   2239 0000 56b8                   MOVE      A_000056b8,D1
00000522   d27c 0080                        ADD.W     #0x0080,D1
00000526   2241                             MOVE      D1,A1
00000528   303c 001a                        MOVE.W    #0x001a,D0
0000052C   4e42                             TRAP      #2
0000052E   2449                             MOVE      A1,A2
00000530   5289                             ADDQ      #1,A1
00000532   2079 0000 5e76                   MOVE      A_00005e76,A0
00000538   4280                             CLR       D0
0000053A   0c10 0000                        CMP.B     #0x0,(A0)
0000053E   670c                             BEQ       B_54c
00000540   0c10 0021                        CMP.B     #0x21,(A0)
00000544   6706                             BEQ       B_54c
00000546   12d8                             MOVE.B    (A0)+,(A1)+
00000548   5240                             ADDQ.W    #1,D0
0000054A   60ee                             BRA       B_53a
0000054C   1480                             MOVE.B    D0,(A2)
0000054E   12bc 0000                        MOVE.B    #0x0000,(A1)
00000552   2f3c 0000 6150                   MOVE      #0x00006150,-(A7)
00000558   3f3c 0001                        MOVE.W    #0x0001,-(A7)
0000055C   4eb9 0000 0be2                   JSR       A_00000be2
00000562   5c8f                             ADDQ      #6,A7
00000564   4280                             CLR       D0
00000566   705c                             MOVEQ     #0x5c,D0
00000568   6140                             BSR.S     B_5aa
0000056A   2f3c 0000 6150                   MOVE      #0x00006150,-(A7)
00000570   3f3c 0002                        MOVE.W    #0x0002,-(A7)
00000574   4eb9 0000 0be2                   JSR       A_00000be2
0000057A   5c8f                             ADDQ      #6,A7
0000057C   4280                             CLR       D0
0000057E   7038                             MOVEQ     #0x38,D0
00000580   6128                             BSR.S     B_5aa
00000582   2079 0000 56bc                   MOVE      A_000056bc,A0
00000588   2279 0000 56b8                   MOVE      A_000056b8,A1
0000058E   2109                             MOVE      A1,-(A0)
00000590   213c 0000 05a4                   MOVE      #0x000005a4,-(A0)
00000596   4e60                             MOVE      A0,USP
00000598   2069 0008                        MOVE      (D_0008,A1),A0
0000059C   4ef9 0000 4f78                   JMP       A_00004f78
000005A2   4e75                             RTS
000005A4   303c 0000                        MOVE.W    #0x0000,D0
000005A8   4e42                             TRAP      #2
000005AA   d0b9 0000 56b8                   ADD       A_000056b8,D0
000005B0   2040                             MOVE      D0,A0
000005B2   227c 0000 6150                   MOVE      #0x00006150,A1
000005B8   4280                             CLR       D0
000005BA   7023                             MOVEQ     #0x23,D0
000005BC   10d9                             MOVE.B    (A1)+,(A0)+
000005BE   51c8 fffc                        DBF       D0,B_105bc
000005C2   4e75                             RTS
000005C4   4e56 fffc                        LINK      A6,0xfffc
000005C8   2ebc 0000 000d                   MOVE      #0x0000000d,(A7)
000005CE   3f3c 0002                        MOVE.W    #0x0002,-(A7)
000005D2   4eb9 0000 04ca                   JSR       A_000004ca
000005D8   548f                             ADDQ      #2,A7
000005DA   2ebc 0000 000a                   MOVE      #0x0000000a,(A7)
000005E0   3f3c 0002                        MOVE.W    #0x0002,-(A7)
000005E4   4eb9 0000 04ca                   JSR       A_000004ca
000005EA   548f                             ADDQ      #2,A7
000005EC   4e5e                             UNLK      a6
000005EE   4e75                             RTS
000005F0   4e56 0000                        LINK      A6,0x0
000005F4   48e7 010c                        MOVEM     REGS D7A45,-(A7)
000005F8   2a6e 0008                        MOVE      (D_0008,A6),A5
000005FC   286e 000c                        MOVE      (D_000c,A6),A4
00000600   18dd                             MOVE.B    (A5)+,(A4)+
00000602   66fc                             BNE       B_600
00000604   4a9f                             TST       (A7)+
00000606   4cdf 3000                        MOVEM     (A7)+,REGS A45
0000060A   4e5e                             UNLK      a6
0000060C   4e75                             RTS
0000060E   4e56 0000                        LINK      A6,0x0
00000612   48e7 010c                        MOVEM     REGS D7A45,-(A7)
00000616   2a6e 0008                        MOVE      (D_0008,A6),A5
0000061A   286e 000c                        MOVE      (D_000c,A6),A4
0000061E   6020                             BRA       B_640
00000620   1015                             MOVE.B    (A5),D0
00000622   4880                             EXT.W     D0
00000624   b014                             CMP.B     (A4),D0
00000626   6f06                             BLE       B_62e
00000628   303c 0001                        MOVE.W    #0x0001,D0
0000062C   6022                             BRA       B_650
0000062E   1015                             MOVE.B    (A5),D0
00000630   4880                             EXT.W     D0
00000632   b014                             CMP.B     (A4),D0
00000634   6c06                             BGE       B_63c
00000636   303c ffff                        MOVE.W    #0xffff,D0
0000063A   6014                             BRA       B_650
0000063C   528d                             ADDQ      #1,A5
0000063E   528c                             ADDQ      #1,A4
00000640   1015                             MOVE.B    (A5),D0
00000642   66dc                             BNE       B_620
00000644   1014                             MOVE.B    (A4),D0
00000646   6604                             BNE       B_64c
00000648   4240                             CLR.W     D0
0000064A   6004                             BRA       B_650
0000064C   303c ffff                        MOVE.W    #0xffff,D0
00000650   4a9f                             TST       (A7)+
00000652   4cdf 3000                        MOVEM     (A7)+,REGS A45
00000656   4e5e                             UNLK      a6
00000658   4e75                             RTS
0000065A   4e56 0000                        LINK      A6,0x0
0000065E   48e7 011c                        MOVEM     REGS D7A3-5,-(A7)
00000662   2a6e 0008                        MOVE      (D_0008,A6),A5
00000666   267c 0000 5f7e                   MOVE      #0x00005f7e,A3
0000066C   1039 0000 60c0                   MOVE.B    A_000060c0,D0
00000672   6718                             BEQ       B_68c
00000674   287c 0000 5e7c                   MOVE      #0x00005e7c,A4
0000067A   6002                             BRA       B_67e
0000067C   16dc                             MOVE.B    (A4)+,(A3)+
0000067E   1014                             MOVE.B    (A4),D0
00000680   66fa                             BNE       B_67c
00000682   16fc 0020                        MOVE.B    #0x0020,(A3)+
00000686   4239 0000 60c0                   CLR.B     A_000060c0
0000068C   6002                             BRA       B_690
0000068E   16dd                             MOVE.B    (A5)+,(A3)+
00000690   1015                             MOVE.B    (A5),D0
00000692   6706                             BEQ       B_69a
00000694   0c15 0021                        CMP.B     #0x21,(A5)
00000698   66f4                             BNE       B_68e
0000069A   4213                             CLR.B     (A3)
0000069C   4a9f                             TST       (A7)+
0000069E   4cdf 3800                        MOVEM     (A7)+,REGS A3-5
000006A2   4e5e                             UNLK      a6
000006A4   4e75                             RTS
000006A6   4e56 fffc                        LINK      A6,0xfffc
000006AA   48e7 0700                        MOVEM     REGS D5-7,-(A7)
000006AE   2ebc 0000 00ff                   MOVE      #0x000000ff,(A7)
000006B4   3f3c 0020                        MOVE.W    #0x0020,-(A7)
000006B8   4eb9 0000 04ca                   JSR       A_000004ca
000006BE   548f                             ADDQ      #2,A7
000006C0   3c00                             MOVE.W    D0,D6
000006C2   4297                             CLR       (A7)
000006C4   3f3c 0019                        MOVE.W    #0x0019,-(A7)
000006C8   4eb9 0000 04ca                   JSR       A_000004ca
000006CE   548f                             ADDQ      #2,A7
000006D0   3e00                             MOVE.W    D0,D7
000006D2   de7c 0041                        ADD.W     #0x0041,D7
000006D6   6100 feec                        BSR       B_105c4
000006DA   3006                             MOVE.W    D6,D0
000006DC   6742                             BEQ       B_720
000006DE   bc7c 000a                        CMP.W     #0x000a,D6
000006E2   651a                             BCS       B_6fe
000006E4   1d7c 0031 fffc                   MOVE.B    #0x0031,(D_fffc,A6)
000006EA   3006                             MOVE.W    D6,D0
000006EC   d07c 0026                        ADD.W     #0x0026,D0
000006F0   4880                             EXT.W     D0
000006F2   1d40 fffd                        MOVE.B    D0,(D_fffd,A6)
000006F6   1d7c 0024 fffe                   MOVE.B    #0x0024,(D_fffe,A6)
000006FC   6012                             BRA       B_710
000006FE   3006                             MOVE.W    D6,D0
00000700   d07c 0030                        ADD.W     #0x0030,D0
00000704   4880                             EXT.W     D0
00000706   1d40 fffc                        MOVE.B    D0,(D_fffc,A6)
0000070A   1d7c 0024 fffd                   MOVE.B    #0x0024,(D_fffd,A6)
00000710   2e8e                             MOVE      A6,(A7)
00000712   5997                             SUBQ      #4,(A7)
00000714   3f3c 0009                        MOVE.W    #0x0009,-(A7)
00000718   4eb9 0000 04ca                   JSR       A_000004ca
0000071E   548f                             ADDQ      #2,A7
00000720   4280                             CLR       D0
00000722   3007                             MOVE.W    D7,D0
00000724   2e80                             MOVE      D0,(A7)
00000726   3f3c 0002                        MOVE.W    #0x0002,-(A7)
0000072A   4eb9 0000 04ca                   JSR       A_000004ca
00000730   548f                             ADDQ      #2,A7
00000732   2ebc 0000 003e                   MOVE      #0x0000003e,(A7)
00000738   3f3c 0002                        MOVE.W    #0x0002,-(A7)
0000073C   4eb9 0000 04ca                   JSR       A_000004ca
00000742   548f                             ADDQ      #2,A7
00000744   4a9f                             TST       (A7)+
00000746   4cdf 00c0                        MOVEM     (A7)+,REGS D67
0000074A   4e5e                             UNLK      a6
0000074C   4e75                             RTS
0000074E   4e56 0000                        LINK      A6,0x0
00000752   48e7 0304                        MOVEM     REGS D67A5,-(A7)
00000756   2a6e 0008                        MOVE      (D_0008,A6),A5
0000075A   3e2e 000c                        MOVE.W    (D_000c,A6),D7
0000075E   be7c 0001                        CMP.W     #0x0001,D7
00000762   6614                             BNE       B_778
00000764   1039 0000 55be                   MOVE.B    A_000055be,D0
0000076A   6708                             BEQ       B_774
0000076C   1039 0000 60be                   MOVE.B    A_000060be,D0
00000772   6604                             BNE       B_778
00000774   6100 ff30                        BSR       B_106a6
00000778   6014                             BRA       B_78e
0000077A   101d                             MOVE.B    (A5)+,D0
0000077C   4880                             EXT.W     D0
0000077E   48c0                             EXT.L     D0
00000780   2e80                             MOVE      D0,(A7)
00000782   3f3c 0002                        MOVE.W    #0x0002,-(A7)
00000786   4eb9 0000 04ca                   JSR       A_000004ca
0000078C   548f                             ADDQ      #2,A7
0000078E   1015                             MOVE.B    (A5),D0
00000790   6706                             BEQ       B_798
00000792   0c15 0021                        CMP.B     #0x21,(A5)
00000796   66e2                             BNE       B_77a
00000798   3007                             MOVE.W    D7,D0
0000079A   6614                             BNE       B_7b0
0000079C   2ebc 0000 003f                   MOVE      #0x0000003f,(A7)
000007A2   3f3c 0002                        MOVE.W    #0x0002,-(A7)
000007A6   4eb9 0000 04ca                   JSR       A_000004ca
000007AC   548f                             ADDQ      #2,A7
000007AE   6004                             BRA       B_7b4
000007B0   6100 fe12                        BSR       B_105c4
000007B4   4a9f                             TST       (A7)+
000007B6   4cdf 2080                        MOVEM     (A7)+,REGS D7A5
000007BA   4e5e                             UNLK      a6
000007BC   4e75                             RTS
000007BE   4e56 0000                        LINK      A6,0x0
000007C2   48e7 0704                        MOVEM     REGS D5-7A5,-(A7)
000007C6   2a6e 0008                        MOVE      (D_0008,A6),A5
000007CA   4247                             CLR.W     D7
000007CC   6036                             BRA       B_804
000007CE   3007                             MOVE.W    D7,D0
000007D0   c0fc 0006 2040                   MULU      #0x00062040,D0
000007D6   227c 0000 5022                   MOVE      #0x00005022,A1
000007DC   2eb0 9800                        MOVE      (D_00,A0,A1.L),(A7)
000007E0   2f0d                             MOVE      A5,-(A7)
000007E2   6100 fe2a                        BSR       B_1060e
000007E6   588f                             ADDQ      #4,A7
000007E8   4a40                             TST.W     D0
000007EA   6616                             BNE       B_802
000007EC   3007                             MOVE.W    D7,D0
000007EE   c0fc 0006 2040                   MULU      #0x00062040,D0
000007F4   227c 0000 5022                   MOVE      #0x00005022,A1
000007FA   3030 9804                        MOVE.W    (D_04,A0,A1.L),D0
000007FE   6000 0108                        BRA.L     B_908
00000802   5247                             ADDQ.W    #1,D7
00000804   be7c 0007                        CMP.W     #0x0007,D7
00000808   65c4                             BCS       B_7ce
0000080A   4247                             CLR.W     D7
0000080C   6002                             BRA       B_810
0000080E   5247                             ADDQ.W    #1,D7
00000810   be7c 001d                        CMP.W     #0x001d,D7
00000814   640e                             BCC       B_824
00000816   3047                             MOVE.W    D7,A0
00000818   d1fc 0000 5e7c                   ADDA      #0x00005e7c,A0
0000081E   0c10 003a                        CMP.B     #0x3a,(A0)
00000822   66ea                             BNE       B_80e
00000824   be7c 0001                        CMP.W     #0x0001,D7
00000828   662c                             BNE       B_856
0000082A   1039 0000 5e7e                   MOVE.B    A_00005e7e,D0
00000830   6624                             BNE       B_856
00000832   1039 0000 5e9a                   MOVE.B    A_00005e9a,D0
00000838   661c                             BNE       B_856
0000083A   0c39 0041 0000 5e7c              CMP.B     #0x41,A_00005e7c
00000842   6d12                             BLT       B_856
00000844   0c39 0050 0000 5e7c              CMP.B     #0x50,A_00005e7c
0000084C   6e08                             BGT       B_856
0000084E   303c 0005                        MOVE.W    #0x0005,D0
00000852   6000 00b4                        BRA.L     B_908
00000856   be7c 0001                        CMP.W     #0x0001,D7
0000085A   661c                             BNE       B_878
0000085C   0c39 0041 0000 5e7c              CMP.B     #0x41,A_00005e7c
00000864   6d0a                             BLT       B_870
00000866   0c39 0050 0000 5e7c              CMP.B     #0x50,A_00005e7c
0000086E   6f08                             BLE       B_878
00000870   303c ffff                        MOVE.W    #0xffff,D0
00000874   6000 0092                        BRA.L     B_908
00000878   be7c 0001                        CMP.W     #0x0001,D7
0000087C   6716                             BEQ       B_894
0000087E   3047                             MOVE.W    D7,A0
00000880   d1fc 0000 5e7c                   ADDA      #0x00005e7c,A0
00000886   0c10 003a                        CMP.B     #0x3a,(A0)
0000088A   6608                             BNE       B_894
0000088C   303c ffff                        MOVE.W    #0xffff,D0
00000890   6000 0076                        BRA.L     B_908
00000894   2ebc 0000 6150                   MOVE      #0x00006150,(A7)
0000089A   4267                             CLR.W     -(A7)
0000089C   6100 0344                        BSR       B_be2
000008A0   548f                             ADDQ      #2,A7
000008A2   4a40                             TST.W     D0
000008A4   6306                             BLS       B_8ac
000008A6   303c ffff                        MOVE.W    #0xffff,D0
000008AA   605c                             BRA       B_908
000008AC   be7c 0001                        CMP.W     #0x0001,D7
000008B0   6606                             BNE       B_8b8
000008B2   3e3c 0002                        MOVE.W    #0x0002,D7
000008B6   6002                             BRA       B_8ba
000008B8   4247                             CLR.W     D7
000008BA   3007                             MOVE.W    D7,D0
000008BC   4840                             SWAP      d0
000008BE   4240                             CLR.W     D0
000008C0   4840                             SWAP      d0
000008C2   d0bc 0000 5e7c                   ADD       #0x00005e7c,D0
000008C8   2e80                             MOVE      D0,(A7)
000008CA   6100 0296                        BSR       B_b62
000008CE   4a40                             TST.W     D0
000008D0   6706                             BEQ       B_8d8
000008D2   303c ffff                        MOVE.W    #0xffff,D0
000008D6   6030                             BRA       B_908
000008D8   4246                             CLR.W     D6
000008DA   6016                             BRA       B_8f2
000008DC   3046                             MOVE.W    D6,A0
000008DE   d1fc 0000 5e7c                   ADDA      #0x00005e7c,A0
000008E4   0c10 0020                        CMP.B     #0x20,(A0)
000008E8   6c06                             BGE       B_8f0
000008EA   303c ffff                        MOVE.W    #0xffff,D0
000008EE   6018                             BRA       B_908
000008F0   5246                             ADDQ.W    #1,D6
000008F2   bc7c 001d                        CMP.W     #0x001d,D6
000008F6   640c                             BCC       B_904
000008F8   207c 0000 5e7c                   MOVE      #0x00005e7c,A0
000008FE   1030 6000                        MOVE.B    (D_00,A0,D6.W),D0
00000902   66d8                             BNE       B_8dc
00000904   303c 0008                        MOVE.W    #0x0008,D0
00000908   4a9f                             TST       (A7)+
0000090A   4cdf 20c0                        MOVEM     (A7)+,REGS D67A5
0000090E   4e5e                             UNLK      a6
00000910   4e75                             RTS
00000912   4e56 0000                        LINK      A6,0x0
00000916   48e7 0104                        MOVEM     REGS D7A5,-(A7)
0000091A   2a6e 0008                        MOVE      (D_0008,A6),A5
0000091E   6002                             BRA       B_922
00000920   528d                             ADDQ      #1,A5
00000922   1015                             MOVE.B    (A5),D0
00000924   6706                             BEQ       B_92c
00000926   0c15 0021                        CMP.B     #0x21,(A5)
0000092A   66f4                             BNE       B_920
0000092C   0c1d 0021                        CMP.B     #0x21,(A5)+
00000930   661e                             BNE       B_950
00000932   1015                             MOVE.B    (A5),D0
00000934   671a                             BEQ       B_950
00000936   13fc 0001 0000 5646              MOVE.B    #0x0001,A_00005646
0000093E   6002                             BRA       B_942
00000940   528d                             ADDQ      #1,A5
00000942   0c15 0020                        CMP.B     #0x20,(A5)
00000946   67f8                             BEQ       B_940
00000948   23cd 0000 60b4                   MOVE      A5,A_000060b4
0000094E   603a                             BRA       B_98a
00000950   1039 0000 5644                   MOVE.B    A_00005644,D0
00000956   672c                             BEQ       B_984
00000958   1039 0000 60c2                   MOVE.B    A_000060c2,D0
0000095E   660a                             BNE       B_96a
00000960   13fc 0001 0000 5646              MOVE.B    #0x0001,A_00005646
00000968   6018                             BRA       B_982
0000096A   4239 0000 5644                   CLR.B     A_00005644
00000970   2079 0000 60b4                   MOVE      A_000060b4,A0
00000976   4a10                             TST.B     (A0)
00000978   6708                             BEQ       B_982
0000097A   13fc 0001 0000 5646              MOVE.B    #0x0001,A_00005646
00000982   6006                             BRA       B_98a
00000984   4239 0000 5646                   CLR.B     A_00005646
0000098A   4a9f                             TST       (A7)+
0000098C   4cdf 2000                        MOVEM     (A7)+,REGS A5
00000990   4e5e                             UNLK      a6
00000992   4e75                             RTS
00000994   4e56 0000                        LINK      A6,0x0
00000998   48e7 030c                        MOVEM     REGS D67A45,-(A7)
0000099C   2a6e 0008                        MOVE      (D_0008,A6),A5
000009A0   2e2e 000c                        MOVE      (D_000c,A6),D7
000009A4   200d                             MOVE      A5,D0
000009A6   5380                             SUBQ      #1,D0
000009A8   de80                             ADD       D0,D7
000009AA   13fc 0080 0000 5ef4              MOVE.B    #0x0080,A_00005ef4
000009B2   2ebc 0000 5ef4                   MOVE      #0x00005ef4,(A7)
000009B8   3f3c 000a                        MOVE.W    #0x000a,-(A7)
000009BC   4eb9 0000 04ca                   JSR       A_000004ca
000009C2   548f                             ADDQ      #2,A7
000009C4   1039 0000 5ef5                   MOVE.B    A_00005ef5,D0
000009CA   670e                             BEQ       B_9da
000009CC   0c39 003b 0000 5ef6              CMP.B     #0x3b,A_00005ef6
000009D4   6704                             BEQ       B_9da
000009D6   6100 fbec                        BSR       B_105c4
000009DA   1039 0000 5ef5                   MOVE.B    A_00005ef5,D0
000009E0   4880                             EXT.W     D0
000009E2   c07c 00ff                        AND.W     #0x00ff,D0
000009E6   4840                             SWAP      d0
000009E8   4240                             CLR.W     D0
000009EA   4840                             SWAP      d0
000009EC   d0bc 0000 5ef4                   ADD       #0x00005ef4,D0
000009F2   2040                             MOVE      D0,A0
000009F4   117c 000a 0002                   MOVE.B    #0x000a,(D_0002,A0)
000009FA   0c39 003b 0000 5ef6              CMP.B     #0x3b,A_00005ef6
00000A02   6608                             BNE       B_a0c
00000A04   13fc 000a 0000 5ef6              MOVE.B    #0x000a,A_00005ef6
00000A0C   287c 0000 5ef6                   MOVE      #0x00005ef6,A4
00000A12   6002                             BRA       B_a16
00000A14   528c                             ADDQ      #1,A4
00000A16   0c14 0020                        CMP.B     #0x20,(A4)
00000A1A   67f8                             BEQ       B_a14
00000A1C   0c14 0009                        CMP.B     #0x9,(A4)
00000A20   67f2                             BEQ       B_a14
00000A22   603e                             BRA       B_a62
00000A24   0c14 0061                        CMP.B     #0x61,(A4)
00000A28   6d10                             BLT       B_a3a
00000A2A   0c14 007a                        CMP.B     #0x7a,(A4)
00000A2E   6e0a                             BGT       B_a3a
00000A30   1014                             MOVE.B    (A4),D0
00000A32   4880                             EXT.W     D0
00000A34   d07c ffe0                        ADD.W     #0xffe0,D0
00000A38   6004                             BRA       B_a3e
00000A3A   1014                             MOVE.B    (A4),D0
00000A3C   4880                             EXT.W     D0
00000A3E   4880                             EXT.W     D0
00000A40   1ac0                             MOVE.B    D0,(A5)+
00000A42   0c14 0020                        CMP.B     #0x20,(A4)
00000A46   6706                             BEQ       B_a4e
00000A48   0c14 0009                        CMP.B     #0x9,(A4)
00000A4C   6612                             BNE       B_a60
00000A4E   528c                             ADDQ      #1,A4
00000A50   204c                             MOVE      A4,A0
00000A52   0c10 0020                        CMP.B     #0x20,(A0)
00000A56   67f6                             BEQ       B_a4e
00000A58   0c14 0009                        CMP.B     #0x9,(A4)
00000A5C   67f0                             BEQ       B_a4e
00000A5E   6002                             BRA       B_a62
00000A60   528c                             ADDQ      #1,A4
00000A62   0c14 000a                        CMP.B     #0xa,(A4)
00000A66   6704                             BEQ       B_a6c
00000A68   bbc7                             CMPA      D7,A5
00000A6A   65b8                             BCS       B_a24
00000A6C   4215                             CLR.B     (A5)
00000A6E   4a9f                             TST       (A7)+
00000A70   4cdf 3080                        MOVEM     (A7)+,REGS D7A45
00000A74   4e5e                             UNLK      a6
00000A76   4e75                             RTS
00000A78   4e56 0000                        LINK      A6,0x0
00000A7C   48e7 0104                        MOVEM     REGS D7A5,-(A7)
00000A80   2a6e 0008                        MOVE      (D_0008,A6),A5
00000A84   6002                             BRA       B_a88
00000A86   528d                             ADDQ      #1,A5
00000A88   0c15 0021                        CMP.B     #0x21,(A5)
00000A8C   6704                             BEQ       B_a92
00000A8E   1015                             MOVE.B    (A5),D0
00000A90   66f4                             BNE       B_a86
00000A92   6002                             BRA       B_a96
00000A94   528d                             ADDQ      #1,A5
00000A96   0c15 0021                        CMP.B     #0x21,(A5)
00000A9A   67f8                             BEQ       B_a94
00000A9C   0c15 0020                        CMP.B     #0x20,(A5)
00000AA0   67f2                             BEQ       B_a94
00000AA2   0c15 0009                        CMP.B     #0x9,(A5)
00000AA6   67ec                             BEQ       B_a94
00000AA8   200d                             MOVE      A5,D0
00000AAA   4a9f                             TST       (A7)+
00000AAC   4cdf 2000                        MOVEM     (A7)+,REGS A5
00000AB0   4e5e                             UNLK      a6
00000AB2   4e75                             RTS
00000AB4   4e56 0000                        LINK      A6,0x0
00000AB8   48e7 070c                        MOVEM     REGS D5-7A45,-(A7)
00000ABC   2a6e 0008                        MOVE      (D_0008,A6),A5
00000AC0   287c 0000 5e7c                   MOVE      #0x00005e7c,A4
00000AC6   4247                             CLR.W     D7
00000AC8   6004                             BRA       B_ace
00000ACA   421c                             CLR.B     (A4)+
00000ACC   5247                             ADDQ.W    #1,D7
00000ACE   be7c 0078                        CMP.W     #0x0078,D7
00000AD2   65f6                             BCS       B_aca
00000AD4   4247                             CLR.W     D7
00000AD6   6000 0070                        BRA.L     B_b48
00000ADA   4246                             CLR.W     D6
00000ADC   6024                             BRA       B_b02
00000ADE   bc7c 001d                        CMP.W     #0x001d,D6
00000AE2   641c                             BCC       B_b00
00000AE4   3007                             MOVE.W    D7,D0
00000AE6   c0fc 001e 3206                   MULU      #0x001e3206,D0
00000AEC   4841                             SWAP      d1
00000AEE   4241                             CLR.W     D1
00000AF0   4841                             SWAP      d1
00000AF2   d081                             ADD       D1,D0
00000AF4   d0bc 0000 5e7c                   ADD       #0x00005e7c,D0
00000AFA   2040                             MOVE      D0,A0
00000AFC   1095                             MOVE.B    (A5),(A0)
00000AFE   5246                             ADDQ.W    #1,D6
00000B00   528d                             ADDQ      #1,A5
00000B02   0c15 0021                        CMP.B     #0x21,(A5)
00000B06   6710                             BEQ       B_b18
00000B08   0c15 0020                        CMP.B     #0x20,(A5)
00000B0C   670a                             BEQ       B_b18
00000B0E   0c15 0009                        CMP.B     #0x9,(A5)
00000B12   6704                             BEQ       B_b18
00000B14   1015                             MOVE.B    (A5),D0
00000B16   66c6                             BNE       B_ade
00000B18   91c8                             SUBA      A0,A0
00000B1A   3046                             MOVE.W    D6,A0
00000B1C   3207                             MOVE.W    D7,D1
00000B1E   c2fc 001e d1c1                   MULU      #0x001ed1c1,D1
00000B24   d1fc 0000 5e7c                   ADDA      #0x00005e7c,A0
00000B2A   4210                             CLR.B     (A0)
00000B2C   5247                             ADDQ.W    #1,D7
00000B2E   0c15 0020                        CMP.B     #0x20,(A5)
00000B32   6706                             BEQ       B_b3a
00000B34   0c15 0009                        CMP.B     #0x9,(A5)
00000B38   6602                             BNE       B_b3c
00000B3A   528d                             ADDQ      #1,A5
00000B3C   be7c 0001                        CMP.W     #0x0001,D7
00000B40   6606                             BNE       B_b48
00000B42   23cd 0000 5e76                   MOVE      A5,A_00005e76
00000B48   1015                             MOVE.B    (A5),D0
00000B4A   670c                             BEQ       B_b58
00000B4C   0c15 0021                        CMP.B     #0x21,(A5)
00000B50   6706                             BEQ       B_b58
00000B52   be7c 0004                        CMP.W     #0x0004,D7
00000B56   6582                             BCS       B_ada
00000B58   4a9f                             TST       (A7)+
00000B5A   4cdf 30c0                        MOVEM     (A7)+,REGS D67A45
00000B5E   4e5e                             UNLK      a6
00000B60   4e75                             RTS
00000B62   4e56 0000                        LINK      A6,0x0
00000B66   48e7 0304                        MOVEM     REGS D67A5,-(A7)
00000B6A   2a6e 0008                        MOVE      (D_0008,A6),A5
00000B6E   0c15 0020                        CMP.B     #0x20,(A5)
00000B72   6e06                             BGT       B_b7a
00000B74   303c 0001                        MOVE.W    #0x0001,D0
00000B78   6024                             BRA       B_b9e
00000B7A   4247                             CLR.W     D7
00000B7C   6018                             BRA       B_b96
00000B7E   207c 0000 51d8                   MOVE      #0x000051d8,A0
00000B84   1030 7000                        MOVE.B    (D_00,A0,D7.W),D0
00000B88   4880                             EXT.W     D0
00000B8A   b015                             CMP.B     (A5),D0
00000B8C   6606                             BNE       B_b94
00000B8E   303c 0001                        MOVE.W    #0x0001,D0
00000B92   600a                             BRA       B_b9e
00000B94   5247                             ADDQ.W    #1,D7
00000B96   be7c 0010                        CMP.W     #0x0010,D7
00000B9A   65e2                             BCS       B_b7e
00000B9C   4240                             CLR.W     D0
00000B9E   4a9f                             TST       (A7)+
00000BA0   4cdf 2080                        MOVEM     (A7)+,REGS D7A5
00000BA4   4e5e                             UNLK      a6
00000BA6   4e75                             RTS
00000BA8   4e56 0000                        LINK      A6,0x0
00000BAC   48e7 0104                        MOVEM     REGS D7A5,-(A7)
00000BB0   2a6e 0008                        MOVE      (D_0008,A6),A5
00000BB4   0c15 002a                        CMP.B     #0x2a,(A5)
00000BB8   6606                             BNE       B_bc0
00000BBA   303c 003f                        MOVE.W    #0x003f,D0
00000BBE   6018                             BRA       B_bd8
00000BC0   2e8d                             MOVE      A5,(A7)
00000BC2   619e                             BSR.S     B_b62
00000BC4   4a40                             TST.W     D0
00000BC6   660c                             BNE       B_bd4
00000BC8   5279 0000 614c                   ADDQ.W    #1,A_0000614c
00000BCE   1015                             MOVE.B    (A5),D0
00000BD0   4880                             EXT.W     D0
00000BD2   6004                             BRA       B_bd8
00000BD4   303c 0020                        MOVE.W    #0x0020,D0
00000BD8   4a9f                             TST       (A7)+
00000BDA   4cdf 2000                        MOVEM     (A7)+,REGS A5
00000BDE   4e5e                             UNLK      a6
00000BE0   4e75                             RTS
00000BE2   4e56 0000                        LINK      A6,0x0
00000BE6   48e7 3f0c                        MOVEM     REGS D2-7A45,-(A7)
00000BEA   3e2e 0008                        MOVE.W    (D_0008,A6),D7
00000BEE   2a6e 000a                        MOVE      (D_000a,A6),A5
00000BF2   4215                             CLR.B     (A5)
00000BF4   383c 000c                        MOVE.W    #0x000c,D4
00000BF8   600a                             BRA       B_c04
00000BFA   204d                             MOVE      A5,A0
00000BFC   3244                             MOVE.W    D4,A1
00000BFE   d1c9                             ADDA      A1,A0
00000C00   4210                             CLR.B     (A0)
00000C02   5244                             ADDQ.W    #1,D4
00000C04   b87c 0023                        CMP.W     #0x0023,D4
00000C08   63f0                             BLS       B_bfa
00000C0A   383c 0001                        MOVE.W    #0x0001,D4
00000C0E   600c                             BRA       B_c1c
00000C10   204d                             MOVE      A5,A0
00000C12   3244                             MOVE.W    D4,A1
00000C14   d1c9                             ADDA      A1,A0
00000C16   10bc 0020                        MOVE.B    #0x0020,(A0)
00000C1A   5244                             ADDQ.W    #1,D4
00000C1C   b87c 000b                        CMP.W     #0x000b,D4
00000C20   63ee                             BLS       B_c10
00000C22   1039 0000 614e                   MOVE.B    A_0000614e,D0
00000C28   6706                             BEQ       B_c30
00000C2A   1c3c 003f                        MOVE.B    #0x003f,D6
00000C2E   6004                             BRA       B_c34
00000C30   1c3c 0020                        MOVE.B    #0x0020,D6
00000C34   4279 0000 614c                   CLR.W     A_0000614c
00000C3A   284d                             MOVE      A5,A4
00000C3C   3007                             MOVE.W    D7,D0
00000C3E   c0fc 001e d0bc                   MULU      #0x001ed0bc,D0
00000C44   0000 5e7c                        OR.B      #0x5e7c,D0
00000C48   3239 0000 614c                   MOVE.W    A_0000614c,D1
00000C4E   4841                             SWAP      d1
00000C50   4241                             CLR.W     D1
00000C52   4841                             SWAP      d1
00000C54   d081                             ADD       D1,D0
00000C56   2040                             MOVE      D0,A0
00000C58   4a10                             TST.B     (A0)
00000C5A   663e                             BNE       B_c9a
00000C5C   528c                             ADDQ      #1,A4
00000C5E   3a3c 0001                        MOVE.W    #0x0001,D5
00000C62   6004                             BRA       B_c68
00000C64   18c6                             MOVE.B    D6,(A4)+
00000C66   5245                             ADDQ.W    #1,D5
00000C68   ba7c 000b                        CMP.W     #0x000b,D5
00000C6C   63f6                             BLS       B_c64
00000C6E   4297                             CLR       (A7)
00000C70   3f3c 0019                        MOVE.W    #0x0019,-(A7)
00000C74   4eb9 0000 04ca                   JSR       A_000004ca
00000C7A   548f                             ADDQ      #2,A7
00000C7C   5240                             ADDQ.W    #1,D0
00000C7E   4880                             EXT.W     D0
00000C80   1a80                             MOVE.B    D0,(A5)
00000C82   1039 0000 614e                   MOVE.B    A_0000614e,D0
00000C88   670a                             BEQ       B_c94
00000C8A   303c 000b                        MOVE.W    #0x000b,D0
00000C8E   6000 02d4                        BRA.L     B_f64
00000C92   6006                             BRA       B_c9a
00000C94   4240                             CLR.W     D0
00000C96   6000 02cc                        BRA.L     B_f64
00000C9A   3007                             MOVE.W    D7,D0
00000C9C   c0fc 001e d0bc                   MULU      #0x001ed0bc,D0
00000CA2   0000 5e7c                        OR.B      #0x5e7c,D0
00000CA6   3239 0000 614c                   MOVE.W    A_0000614c,D1
00000CAC   4841                             SWAP      d1
00000CAE   4241                             CLR.W     D1
00000CB0   4841                             SWAP      d1
00000CB2   d081                             ADD       D1,D0
00000CB4   2040                             MOVE      D0,A0
00000CB6   0c28 003a 0001                   CMP.B     #0x3a,(D_0001,A0)
00000CBC   6600 0076                        BNE.L     B_d34
00000CC0   3079 0000 614c                   MOVE.W    A_0000614c,A0
00000CC6   3207                             MOVE.W    D7,D1
00000CC8   c2fc 001e d2bc                   MULU      #0x001ed2bc,D1
00000CCE   0000 5e7c                        OR.B      #0x5e7c,D0
00000CD2   1030 1800                        MOVE.B    (D_00,A0,D1.L),D0
00000CD6   4880                             EXT.W     D0
00000CD8   d07c ffc0                        ADD.W     #0xffc0,D0
00000CDC   4880                             EXT.W     D0
00000CDE   1880                             MOVE.B    D0,(A4)
00000CE0   5479 0000 614c                   ADDQ.W    #2,A_0000614c
00000CE6   3007                             MOVE.W    D7,D0
00000CE8   c0fc 001e d0bc                   MULU      #0x001ed0bc,D0
00000CEE   0000 5e7c                        OR.B      #0x5e7c,D0
00000CF2   3239 0000 614c                   MOVE.W    A_0000614c,D1
00000CF8   4841                             SWAP      d1
00000CFA   4241                             CLR.W     D1
00000CFC   4841                             SWAP      d1
00000CFE   d081                             ADD       D1,D0
00000D00   2040                             MOVE      D0,A0
00000D02   4a10                             TST.B     (A0)
00000D04   662c                             BNE       B_d32
00000D06   49ed 0001                        LEA       (D_0001,A5),A4
00000D0A   3a3c 0001                        MOVE.W    #0x0001,D5
00000D0E   6004                             BRA       B_d14
00000D10   18c6                             MOVE.B    D6,(A4)+
00000D12   5245                             ADDQ.W    #1,D5
00000D14   ba7c 000b                        CMP.W     #0x000b,D5
00000D18   63f6                             BLS       B_d10
00000D1A   1039 0000 614e                   MOVE.B    A_0000614e,D0
00000D20   670a                             BEQ       B_d2c
00000D22   303c 000b                        MOVE.W    #0x000b,D0
00000D26   6000 023c                        BRA.L     B_f64
00000D2A   6006                             BRA       B_d32
00000D2C   4240                             CLR.W     D0
00000D2E   6000 0234                        BRA.L     B_f64
00000D32   6014                             BRA       B_d48
00000D34   4297                             CLR       (A7)
00000D36   3f3c 0019                        MOVE.W    #0x0019,-(A7)
00000D3A   4eb9 0000 04ca                   JSR       A_000004ca
00000D40   548f                             ADDQ      #2,A7
00000D42   5240                             ADDQ.W    #1,D0
00000D44   4880                             EXT.W     D0
00000D46   1a80                             MOVE.B    D0,(A5)
00000D48   284d                             MOVE      A5,A4
00000D4A   528c                             ADDQ      #1,A4
00000D4C   3639 0000 614c                   MOVE.W    A_0000614c,D3
00000D52   3a3c 0001                        MOVE.W    #0x0001,D5
00000D56   6026                             BRA       B_d7e
00000D58   3007                             MOVE.W    D7,D0
00000D5A   c0fc 001e d0bc                   MULU      #0x001ed0bc,D0
00000D60   0000 5e7c                        OR.B      #0x5e7c,D0
00000D64   3239 0000 614c                   MOVE.W    A_0000614c,D1
00000D6A   4841                             SWAP      d1
00000D6C   4241                             CLR.W     D1
00000D6E   4841                             SWAP      d1
00000D70   d081                             ADD       D1,D0
00000D72   2e80                             MOVE      D0,(A7)
00000D74   6100 fe32                        BSR       B_10ba8
00000D78   4880                             EXT.W     D0
00000D7A   18c0                             MOVE.B    D0,(A4)+
00000D7C   5245                             ADDQ.W    #1,D5
00000D7E   ba7c 0008                        CMP.W     #0x0008,D5
00000D82   63d4                             BLS       B_d58
00000D84   3039 0000 614c                   MOVE.W    A_0000614c,D0
00000D8A   3203                             MOVE.W    D3,D1
00000D8C   9041                             SUB.W     D1,D0
00000D8E   b07c 0008                        CMP.W     #0x0008,D0
00000D92   662a                             BNE       B_dbe
00000D94   3007                             MOVE.W    D7,D0
00000D96   c0fc 001e d0bc                   MULU      #0x001ed0bc,D0
00000D9C   0000 5e7c                        OR.B      #0x5e7c,D0
00000DA0   3239 0000 614c                   MOVE.W    A_0000614c,D1
00000DA6   4841                             SWAP      d1
00000DA8   4241                             CLR.W     D1
00000DAA   4841                             SWAP      d1
00000DAC   d081                             ADD       D1,D0
00000DAE   2040                             MOVE      D0,A0
00000DB0   0c10 002a                        CMP.B     #0x2a,(A0)
00000DB4   6608                             BNE       B_dbe
00000DB6   303c 000c                        MOVE.W    #0x000c,D0
00000DBA   6000 01a8                        BRA.L     B_f64
00000DBE   3007                             MOVE.W    D7,D0
00000DC0   c0fc 001e d0bc                   MULU      #0x001ed0bc,D0
00000DC6   0000 5e7c                        OR.B      #0x5e7c,D0
00000DCA   3239 0000 614c                   MOVE.W    A_0000614c,D1
00000DD0   4841                             SWAP      d1
00000DD2   4241                             CLR.W     D1
00000DD4   4841                             SWAP      d1
00000DD6   d081                             ADD       D1,D0
00000DD8   2040                             MOVE      D0,A0
00000DDA   0c10 002a                        CMP.B     #0x2a,(A0)
00000DDE   6608                             BNE       B_de8
00000DE0   5279 0000 614c                   ADDQ.W    #1,A_0000614c
00000DE6   602c                             BRA       B_e14
00000DE8   3007                             MOVE.W    D7,D0
00000DEA   c0fc 001e d0bc                   MULU      #0x001ed0bc,D0
00000DF0   0000 5e7c                        OR.B      #0x5e7c,D0
00000DF4   3239 0000 614c                   MOVE.W    A_0000614c,D1
00000DFA   4841                             SWAP      d1
00000DFC   4241                             CLR.W     D1
00000DFE   4841                             SWAP      d1
00000E00   d081                             ADD       D1,D0
00000E02   2e80                             MOVE      D0,(A7)
00000E04   6100 fd5c                        BSR       B_10b62
00000E08   4a40                             TST.W     D0
00000E0A   6608                             BNE       B_e14
00000E0C   303c 000c                        MOVE.W    #0x000c,D0
00000E10   6000 0152                        BRA.L     B_f64
00000E14   3079 0000 614c                   MOVE.W    A_0000614c,A0
00000E1A   3207                             MOVE.W    D7,D1
00000E1C   c2fc 001e d2bc                   MULU      #0x001ed2bc,D1
00000E22   0000 5e7c                        OR.B      #0x5e7c,D0
00000E26   1030 1800                        MOVE.B    (D_00,A0,D1.L),D0
00000E2A   4880                             EXT.W     D0
00000E2C   48c0                             EXT.L     D0
00000E2E   b0bc 0000 002e                   CMP       #0x0000002e,D0
00000E34   6600 00c4                        BNE.L     B_efa
00000E38   5279 0000 614c                   ADDQ.W    #1,A_0000614c
00000E3E   3639 0000 614c                   MOVE.W    A_0000614c,D3
00000E44   3a3c 0001                        MOVE.W    #0x0001,D5
00000E48   6026                             BRA       B_e70
00000E4A   3007                             MOVE.W    D7,D0
00000E4C   c0fc 001e d0bc                   MULU      #0x001ed0bc,D0
00000E52   0000 5e7c                        OR.B      #0x5e7c,D0
00000E56   3239 0000 614c                   MOVE.W    A_0000614c,D1
00000E5C   4841                             SWAP      d1
00000E5E   4241                             CLR.W     D1
00000E60   4841                             SWAP      d1
00000E62   d081                             ADD       D1,D0
00000E64   2e80                             MOVE      D0,(A7)
00000E66   6100 fd40                        BSR       B_10ba8
00000E6A   4880                             EXT.W     D0
00000E6C   18c0                             MOVE.B    D0,(A4)+
00000E6E   5245                             ADDQ.W    #1,D5
00000E70   ba7c 0003                        CMP.W     #0x0003,D5
00000E74   63d4                             BLS       B_e4a
00000E76   3039 0000 614c                   MOVE.W    A_0000614c,D0
00000E7C   3203                             MOVE.W    D3,D1
00000E7E   9041                             SUB.W     D1,D0
00000E80   b07c 0003                        CMP.W     #0x0003,D0
00000E84   6628                             BNE       B_eae
00000E86   3007                             MOVE.W    D7,D0
00000E88   c0fc 001e d0bc                   MULU      #0x001ed0bc,D0
00000E8E   0000 5e7c                        OR.B      #0x5e7c,D0
00000E92   3239 0000 614c                   MOVE.W    A_0000614c,D1
00000E98   4841                             SWAP      d1
00000E9A   4241                             CLR.W     D1
00000E9C   4841                             SWAP      d1
00000E9E   d081                             ADD       D1,D0
00000EA0   2040                             MOVE      D0,A0
00000EA2   4a10                             TST.B     (A0)
00000EA4   6708                             BEQ       B_eae
00000EA6   303c 000c                        MOVE.W    #0x000c,D0
00000EAA   6000 00b8                        BRA.L     B_f64
00000EAE   3007                             MOVE.W    D7,D0
00000EB0   c0fc 001e d0bc                   MULU      #0x001ed0bc,D0
00000EB6   0000 5e7c                        OR.B      #0x5e7c,D0
00000EBA   3239 0000 614c                   MOVE.W    A_0000614c,D1
00000EC0   4841                             SWAP      d1
00000EC2   4241                             CLR.W     D1
00000EC4   4841                             SWAP      d1
00000EC6   d081                             ADD       D1,D0
00000EC8   2040                             MOVE      D0,A0
00000ECA   0c10 002a                        CMP.B     #0x2a,(A0)
00000ECE   6728                             BEQ       B_ef8
00000ED0   3007                             MOVE.W    D7,D0
00000ED2   c0fc 001e d0bc                   MULU      #0x001ed0bc,D0
00000ED8   0000 5e7c                        OR.B      #0x5e7c,D0
00000EDC   3239 0000 614c                   MOVE.W    A_0000614c,D1
00000EE2   4841                             SWAP      d1
00000EE4   4241                             CLR.W     D1
00000EE6   4841                             SWAP      d1
00000EE8   d081                             ADD       D1,D0
00000EEA   2040                             MOVE      D0,A0
00000EEC   4a10                             TST.B     (A0)
00000EEE   6708                             BEQ       B_ef8
00000EF0   303c 000c                        MOVE.W    #0x000c,D0
00000EF4   6000 006e                        BRA.L     B_f64
00000EF8   604a                             BRA       B_f44
00000EFA   3007                             MOVE.W    D7,D0
00000EFC   c0fc 001e d0bc                   MULU      #0x001ed0bc,D0
00000F02   0000 5e7c                        OR.B      #0x5e7c,D0
00000F06   3239 0000 614c                   MOVE.W    A_0000614c,D1
00000F0C   4841                             SWAP      d1
00000F0E   4241                             CLR.W     D1
00000F10   4841                             SWAP      d1
00000F12   d081                             ADD       D1,D0
00000F14   2040                             MOVE      D0,A0
00000F16   4a10                             TST.B     (A0)
00000F18   672a                             BEQ       B_f44
00000F1A   3007                             MOVE.W    D7,D0
00000F1C   c0fc 001e d0bc                   MULU      #0x001ed0bc,D0
00000F22   0000 5e7c                        OR.B      #0x5e7c,D0
00000F26   3239 0000 614c                   MOVE.W    A_0000614c,D1
00000F2C   4841                             SWAP      d1
00000F2E   4241                             CLR.W     D1
00000F30   4841                             SWAP      d1
00000F32   d081                             ADD       D1,D0
00000F34   2e80                             MOVE      D0,(A7)
00000F36   6100 fc2a                        BSR       B_10b62
00000F3A   4a40                             TST.W     D0
00000F3C   6706                             BEQ       B_f44
00000F3E   303c 000c                        MOVE.W    #0x000c,D0
00000F42   6020                             BRA       B_f64
00000F44   4244                             CLR.W     D4
00000F46   3a3c 0001                        MOVE.W    #0x0001,D5
00000F4A   6010                             BRA       B_f5c
00000F4C   204d                             MOVE      A5,A0
00000F4E   3245                             MOVE.W    D5,A1
00000F50   d1c9                             ADDA      A1,A0
00000F52   0c10 003f                        CMP.B     #0x3f,(A0)
00000F56   6602                             BNE       B_f5a
00000F58   5244                             ADDQ.W    #1,D4
00000F5A   5245                             ADDQ.W    #1,D5
00000F5C   ba7c 000b                        CMP.W     #0x000b,D5
00000F60   63ea                             BLS       B_f4c
00000F62   3004                             MOVE.W    D4,D0
00000F64   4a9f                             TST       (A7)+
00000F66   4cdf 30f8                        MOVEM     (A7)+,REGS D3-7A45
00000F6A   4e5e                             UNLK      a6
00000F6C   4e75                             RTS
00000F6E   4e56 fffc                        LINK      A6,0xfffc
00000F72   1039 0000 5eb8                   MOVE.B    A_00005eb8,D0
00000F78   6726                             BEQ       B_fa0
00000F7A   2ebc 0000 5148                   MOVE      #0x00005148,(A7)
00000F80   3f3c 0009                        MOVE.W    #0x0009,-(A7)
00000F84   4eb9 0000 04ca                   JSR       A_000004ca
00000F8A   548f                             ADDQ      #2,A7
00000F8C   4257                             CLR.W     (A7)
00000F8E   2f3c 0000 5eb8                   MOVE      #0x00005eb8,-(A7)
00000F94   6100 f7b8                        BSR       B_1074e
00000F98   588f                             ADDQ      #4,A7
00000F9A   303c 0001                        MOVE.W    #0x0001,D0
00000F9E   6002                             BRA       B_fa2
00000FA0   4240                             CLR.W     D0
00000FA2   4e5e                             UNLK      a6
00000FA4   4e75                             RTS
00000FA6   4e56 0000                        LINK      A6,0x0
00000FAA   48e7 0300                        MOVEM     REGS D67,-(A7)
00000FAE   4247                             CLR.W     D7
00000FB0   6002                             BRA       B_fb4
00000FB2   5247                             ADDQ.W    #1,D7
00000FB4   207c 0000 5e7c                   MOVE      #0x00005e7c,A0
00000FBA   1030 701e                        MOVE.B    (D_1e,A0,D7.W),D0
00000FBE   6710                             BEQ       B_fd0
00000FC0   3047                             MOVE.W    D7,A0
00000FC2   d1fc 0000 5e7c                   ADDA      #0x00005e7c,A0
00000FC8   0c28 003a 001e                   CMP.B     #0x3a,(D_001e,A0)
00000FCE   66e2                             BNE       B_fb2
00000FD0   3007                             MOVE.W    D7,D0
00000FD2   4a9f                             TST       (A7)+
00000FD4   4cdf 0080                        MOVEM     (A7)+,REGS D7
00000FD8   4e5e                             UNLK      a6
00000FDA   4e75                             RTS
00000FDC   4e56 fffc                        LINK      A6,0xfffc
00000FE0   207c 0000 5e7c                   MOVE      #0x00005e7c,A0
00000FE6   326e 0008                        MOVE.W    (D_0008,A6),A1
00000FEA   d1c9                             ADDA      A1,A0
00000FEC   0c28 003a 001e                   CMP.B     #0x3a,(D_001e,A0)
00000FF2   662e                             BNE       B_1022
00000FF4   0c6e 0001 0008                   CMP.W     #0x1,(D_0008,A6)
00000FFA   6614                             BNE       B_1010
00000FFC   0c39 0041 0000 5e9a              CMP.B     #0x41,A_00005e9a
00001004   6d0a                             BLT       B_1010
00001006   0c39 0050 0000 5e9a              CMP.B     #0x50,A_00005e9a
0000100E   6f12                             BLE       B_1022
00001010   4257                             CLR.W     (A7)
00001012   2f3c 0000 5e9a                   MOVE      #0x00005e9a,-(A7)
00001018   6100 f734                        BSR       B_1074e
0000101C   588f                             ADDQ      #4,A7
0000101E   4240                             CLR.W     D0
00001020   6004                             BRA       B_1026
00001022   303c 0001                        MOVE.W    #0x0001,D0
00001026   4e5e                             UNLK      a6
00001028   4e75                             RTS
0000102A   4e56 fff8                        LINK      A6,0xfff8
0000102E   48e7 3f00                        MOVEM     REGS D2-7,-(A7)
00001032   3e2e 0008                        MOVE.W    (D_0008,A6),D7
00001036   426e fff8                        CLR.W     (D_fff8,A6)
0000103A   422e fffe                        CLR.B     (D_fffe,A6)
0000103E   6100 ff2e                        BSR       B_10f6e
00001042   4a40                             TST.W     D0
00001044   6600 01ea                        BNE.L     B_1230
00001048   6100 ff5c                        BSR       B_10fa6
0000104C   3600                             MOVE.W    D0,D3
0000104E   3e83                             MOVE.W    D3,(A7)
00001050   618a                             BSR.S     B_fdc
00001052   4a40                             TST.W     D0
00001054   6700 01da                        BEQ.L     B_1230
00001058   2ebc 0000 6150                   MOVE      #0x00006150,(A7)
0000105E   3f3c 0001                        MOVE.W    #0x0001,-(A7)
00001062   6100 fb7e                        BSR       B_10be2
00001066   548f                             ADDQ      #2,A7
00001068   1039 0000 6150                   MOVE.B    A_00006150,D0
0000106E   4880                             EXT.W     D0
00001070   d07c 0040                        ADD.W     #0x0040,D0
00001074   3d40 fffa                        MOVE.W    D0,(D_fffa,A6)
00001078   2ebc 0000 6150                   MOVE      #0x00006150,(A7)
0000107E   3f3c 0011                        MOVE.W    #0x0011,-(A7)
00001082   4eb9 0000 04ca                   JSR       A_000004ca
00001088   548f                             ADDQ      #2,A7
0000108A   3c00                             MOVE.W    D0,D6
0000108C   bc7c 00ff                        CMP.W     #0x00ff,D6
00001090   6612                             BNE       B_10a4
00001092   2ebc 0000 50b8                   MOVE      #0x000050b8,(A7)
00001098   3f3c 0009                        MOVE.W    #0x0009,-(A7)
0000109C   4eb9 0000 04ca                   JSR       A_000004ca
000010A2   548f                             ADDQ      #2,A7
000010A4   3806                             MOVE.W    D6,D4
000010A6   eb4c                             LSL.W     #5,D4
000010A8   5244                             ADDQ.W    #1,D4
000010AA   4245                             CLR.W     D5
000010AC   6000 0146                        BRA.L     B_11f4
000010B0   3007                             MOVE.W    D7,D0
000010B2   6710                             BEQ       B_10c4
000010B4   3044                             MOVE.W    D4,A0
000010B6   d1fc 0000 5ef4                   ADDA      #0x00005ef4,A0
000010BC   0828 0007 0009                   BTST      #7,(D_0009,A0)
000010C2   6614                             BNE       B_10d8
000010C4   3007                             MOVE.W    D7,D0
000010C6   6638                             BNE       B_1100
000010C8   3044                             MOVE.W    D4,A0
000010CA   d1fc 0000 5ef4                   ADDA      #0x00005ef4,A0
000010D0   0828 0007 0009                   BTST      #7,(D_0009,A0)
000010D6   6628                             BNE       B_1100
000010D8   102e fffe                        MOVE.B    (D_fffe,A6),D0
000010DC   6708                             BEQ       B_10e6
000010DE   6100 f4e4                        BSR       B_105c4
000010E2   422e fffe                        CLR.B     (D_fffe,A6)
000010E6   3005                             MOVE.W    D5,D0
000010E8   6614                             BNE       B_10fe
000010EA   4280                             CLR       D0
000010EC   302e fffa                        MOVE.W    (D_fffa,A6),D0
000010F0   2e80                             MOVE      D0,(A7)
000010F2   3f3c 0002                        MOVE.W    #0x0002,-(A7)
000010F6   4eb9 0000 04ca                   JSR       A_000004ca
000010FC   548f                             ADDQ      #2,A7
000010FE   601c                             BRA       B_111c
00001100   3d7c 0001 fff8                   MOVE.W    #0x0001,(D_fff8,A6)
00001106   3ebc 0012                        MOVE.W    #0x0012,(A7)
0000110A   4eb9 0000 04ca                   JSR       A_000004ca
00001110   3c00                             MOVE.W    D0,D6
00001112   3806                             MOVE.W    D6,D4
00001114   eb4c                             LSL.W     #5,D4
00001116   5244                             ADDQ.W    #1,D4
00001118   6000 00da                        BRA.L     B_11f4
0000111C   eb4e                             LSL.W     #5,D6
0000111E   5246                             ADDQ.W    #1,D6
00001120   2ebc 0000 003a                   MOVE      #0x0000003a,(A7)
00001126   3f3c 0002                        MOVE.W    #0x0002,-(A7)
0000112A   4eb9 0000 04ca                   JSR       A_000004ca
00001130   548f                             ADDQ      #2,A7
00001132   2ebc 0000 0020                   MOVE      #0x00000020,(A7)
00001138   3f3c 0002                        MOVE.W    #0x0002,-(A7)
0000113C   4eb9 0000 04ca                   JSR       A_000004ca
00001142   548f                             ADDQ      #2,A7
00001144   363c 0001                        MOVE.W    #0x0001,D3
00001148   603c                             BRA       B_1186
0000114A   b67c 0009                        CMP.W     #0x0009,D3
0000114E   6612                             BNE       B_1162
00001150   2ebc 0000 0020                   MOVE      #0x00000020,(A7)
00001156   3f3c 0002                        MOVE.W    #0x0002,-(A7)
0000115A   4eb9 0000 04ca                   JSR       A_000004ca
00001160   548f                             ADDQ      #2,A7
00001162   207c 0000 5ef4                   MOVE      #0x00005ef4,A0
00001168   1030 6000                        MOVE.B    (D_00,A0,D6.W),D0
0000116C   4880                             EXT.W     D0
0000116E   c07c 007f                        AND.W     #0x007f,D0
00001172   48c0                             EXT.L     D0
00001174   2e80                             MOVE      D0,(A7)
00001176   3f3c 0002                        MOVE.W    #0x0002,-(A7)
0000117A   4eb9 0000 04ca                   JSR       A_000004ca
00001180   548f                             ADDQ      #2,A7
00001182   5246                             ADDQ.W    #1,D6
00001184   5243                             ADDQ.W    #1,D3
00001186   b67c 000b                        CMP.W     #0x000b,D3
0000118A   63be                             BLS       B_114a
0000118C   2ebc 0000 0020                   MOVE      #0x00000020,(A7)
00001192   3f3c 0002                        MOVE.W    #0x0002,-(A7)
00001196   4eb9 0000 04ca                   JSR       A_000004ca
0000119C   548f                             ADDQ      #2,A7
0000119E   3ebc 0012                        MOVE.W    #0x0012,(A7)
000011A2   4eb9 0000 04ca                   JSR       A_000004ca
000011A8   3c00                             MOVE.W    D0,D6
000011AA   bc7c 00ff                        CMP.W     #0x00ff,D6
000011AE   674c                             BEQ       B_11fc
000011B0   5245                             ADDQ.W    #1,D5
000011B2   3806                             MOVE.W    D6,D4
000011B4   eb4c                             LSL.W     #5,D4
000011B6   5244                             ADDQ.W    #1,D4
000011B8   ba7c 0005                        CMP.W     #0x0005,D5
000011BC   6636                             BNE       B_11f4
000011BE   4245                             CLR.W     D5
000011C0   3007                             MOVE.W    D7,D0
000011C2   6710                             BEQ       B_11d4
000011C4   3044                             MOVE.W    D4,A0
000011C6   d1fc 0000 5ef4                   ADDA      #0x00005ef4,A0
000011CC   0828 0007 0009                   BTST      #7,(D_0009,A0)
000011D2   6614                             BNE       B_11e8
000011D4   3007                             MOVE.W    D7,D0
000011D6   6616                             BNE       B_11ee
000011D8   3044                             MOVE.W    D4,A0
000011DA   d1fc 0000 5ef4                   ADDA      #0x00005ef4,A0
000011E0   0828 0007 0009                   BTST      #7,(D_0009,A0)
000011E6   6606                             BNE       B_11ee
000011E8   6100 f3da                        BSR       B_105c4
000011EC   6006                             BRA       B_11f4
000011EE   1d7c 0001 fffe                   MOVE.B    #0x0001,(D_fffe,A6)
000011F4   bc7c 00ff                        CMP.W     #0x00ff,D6
000011F8   6600 feb6                        BNE.L     B_110b0
000011FC   302e fff8                        MOVE.W    (D_fff8,A6),D0
00001200   672e                             BEQ       B_1230
00001202   6100 f3c0                        BSR       B_105c4
00001206   3007                             MOVE.W    D7,D0
00001208   6714                             BEQ       B_121e
0000120A   2ebc 0000 5052                   MOVE      #0x00005052,(A7)
00001210   3f3c 0009                        MOVE.W    #0x0009,-(A7)
00001214   4eb9 0000 04ca                   JSR       A_000004ca
0000121A   548f                             ADDQ      #2,A7
0000121C   6012                             BRA       B_1230
0000121E   2ebc 0000 5056                   MOVE      #0x00005056,(A7)
00001224   3f3c 0009                        MOVE.W    #0x0009,-(A7)
00001228   4eb9 0000 04ca                   JSR       A_000004ca
0000122E   548f                             ADDQ      #2,A7
00001230   4a9f                             TST       (A7)+
00001232   4cdf 00f8                        MOVEM     (A7)+,REGS D3-7
00001236   4e5e                             UNLK      a6
00001238   4e75                             RTS
0000123A   4e56 0000                        LINK      A6,0x0
0000123E   48e7 0300                        MOVEM     REGS D67,-(A7)
00001242   1039 0000 5e9a                   MOVE.B    A_00005e9a,D0
00001248   6624                             BNE       B_126e
0000124A   2ebc 0000 506c                   MOVE      #0x0000506c,(A7)
00001250   3f3c 0009                        MOVE.W    #0x0009,-(A7)
00001254   4eb9 0000 04ca                   JSR       A_000004ca
0000125A   548f                             ADDQ      #2,A7
0000125C   2ebc 0000 001d                   MOVE      #0x0000001d,(A7)
00001262   2f3c 0000 5e9a                   MOVE      #0x00005e9a,-(A7)
00001268   6100 f72a                        BSR       B_10994
0000126C   588f                             ADDQ      #4,A7
0000126E   6100 fcfe                        BSR       B_10f6e
00001272   4a40                             TST.W     D0
00001274   6600 00f2                        BNE.L     B_1368
00001278   6100 fd2c                        BSR       B_10fa6
0000127C   3e00                             MOVE.W    D0,D7
0000127E   3e87                             MOVE.W    D7,(A7)
00001280   6100 fd5a                        BSR       B_10fdc
00001284   4a40                             TST.W     D0
00001286   6700 00e0                        BEQ.L     B_1368
0000128A   2ebc 0000 6150                   MOVE      #0x00006150,(A7)
00001290   3f3c 0001                        MOVE.W    #0x0001,-(A7)
00001294   6100 f94c                        BSR       B_10be2
00001298   548f                             ADDQ      #2,A7
0000129A   3e00                             MOVE.W    D0,D7
0000129C   3007                             MOVE.W    D7,D0
0000129E   6600 0090                        BNE.L     B_1330
000012A2   1039 0000 5e9a                   MOVE.B    A_00005e9a,D0
000012A8   6700 0086                        BEQ.L     B_1330
000012AC   2ebc 0000 6150                   MOVE      #0x00006150,(A7)
000012B2   3f3c 000f                        MOVE.W    #0x000f,-(A7)
000012B6   4eb9 0000 04ca                   JSR       A_000004ca
000012BC   548f                             ADDQ      #2,A7
000012BE   b07c 0003                        CMP.W     #0x0003,D0
000012C2   626c                             BHI       B_1330
000012C4   603a                             BRA       B_1300
000012C6   4247                             CLR.W     D7
000012C8   6030                             BRA       B_12fa
000012CA   3047                             MOVE.W    D7,A0
000012CC   d1fc 0000 5ef4                   ADDA      #0x00005ef4,A0
000012D2   0c10 001a                        CMP.B     #0x1a,(A0)
000012D6   671e                             BEQ       B_12f6
000012D8   207c 0000 5ef4                   MOVE      #0x00005ef4,A0
000012DE   1030 7000                        MOVE.B    (D_00,A0,D7.W),D0
000012E2   4880                             EXT.W     D0
000012E4   48c0                             EXT.L     D0
000012E6   2e80                             MOVE      D0,(A7)
000012E8   3f3c 0002                        MOVE.W    #0x0002,-(A7)
000012EC   4eb9 0000 04ca                   JSR       A_000004ca
000012F2   548f                             ADDQ      #2,A7
000012F4   6002                             BRA       B_12f8
000012F6   6008                             BRA       B_1300
000012F8   5247                             ADDQ.W    #1,D7
000012FA   be7c 007f                        CMP.W     #0x007f,D7
000012FE   63ca                             BLS       B_12ca
00001300   2ebc 0000 6150                   MOVE      #0x00006150,(A7)
00001306   3f3c 0014                        MOVE.W    #0x0014,-(A7)
0000130A   4eb9 0000 04ca                   JSR       A_000004ca
00001310   548f                             ADDQ      #2,A7
00001312   4a40                             TST.W     D0
00001314   67b0                             BEQ       B_12c6
00001316   1039 0000 6150                   MOVE.B    A_00006150,D0
0000131C   4880                             EXT.W     D0
0000131E   48c0                             EXT.L     D0
00001320   2e80                             MOVE      D0,(A7)
00001322   3f3c 0025                        MOVE.W    #0x0025,-(A7)
00001326   4eb9 0000 04ca                   JSR       A_000004ca
0000132C   548f                             ADDQ      #2,A7
0000132E   6038                             BRA       B_1368
00001330   1039 0000 5e9a                   MOVE.B    A_00005e9a,D0
00001336   6730                             BEQ       B_1368
00001338   3007                             MOVE.W    D7,D0
0000133A   631a                             BLS       B_1356
0000133C   be7c 000c                        CMP.W     #0x000c,D7
00001340   6414                             BCC       B_1356
00001342   2ebc 0000 50c2                   MOVE      #0x000050c2,(A7)
00001348   3f3c 0009                        MOVE.W    #0x0009,-(A7)
0000134C   4eb9 0000 04ca                   JSR       A_000004ca
00001352   548f                             ADDQ      #2,A7
00001354   6012                             BRA       B_1368
00001356   2ebc 0000 50b8                   MOVE      #0x000050b8,(A7)
0000135C   3f3c 0009                        MOVE.W    #0x0009,-(A7)
00001360   4eb9 0000 04ca                   JSR       A_000004ca
00001366   548f                             ADDQ      #2,A7
00001368   4a9f                             TST       (A7)+
0000136A   4cdf 0080                        MOVEM     (A7)+,REGS D7
0000136E   4e5e                             UNLK      a6
00001370   4e75                             RTS
00001372   4e56 ffdc                        LINK      A6,0xffdc
00001376   48e7 1f00                        MOVEM     REGS D3-7,-(A7)
0000137A   4244                             CLR.W     D4
0000137C   1039 0000 5e9a                   MOVE.B    A_00005e9a,D0
00001382   665e                             BNE       B_13e2
00001384   2ebc 0000 507e                   MOVE      #0x0000507e,(A7)
0000138A   3f3c 0009                        MOVE.W    #0x0009,-(A7)
0000138E   4eb9 0000 04ca                   JSR       A_000004ca
00001394   548f                             ADDQ      #2,A7
00001396   2ebc 0000 001d                   MOVE      #0x0000001d,(A7)
0000139C   2f3c 0000 5ed6                   MOVE      #0x00005ed6,-(A7)
000013A2   6100 f5f0                        BSR       B_10994
000013A6   588f                             ADDQ      #4,A7
000013A8   1039 0000 5ed6                   MOVE.B    A_00005ed6,D0
000013AE   6700 0330                        BEQ.L     B_16e0
000013B2   2ebc 0000 5090                   MOVE      #0x00005090,(A7)
000013B8   3f3c 0009                        MOVE.W    #0x0009,-(A7)
000013BC   4eb9 0000 04ca                   JSR       A_000004ca
000013C2   548f                             ADDQ      #2,A7
000013C4   2ebc 0000 001d                   MOVE      #0x0000001d,(A7)
000013CA   2f3c 0000 5e9a                   MOVE      #0x00005e9a,-(A7)
000013D0   6100 f5c2                        BSR       B_10994
000013D4   588f                             ADDQ      #4,A7
000013D6   13fc 003d 0000 5eb8              MOVE.B    #0x003d,A_00005eb8
000013DE   6000 00bc                        BRA.L     B_149c
000013E2   4247                             CLR.W     D7
000013E4   6002                             BRA       B_13e8
000013E6   5247                             ADDQ.W    #1,D7
000013E8   3047                             MOVE.W    D7,A0
000013EA   d1fc 0000 5e7c                   ADDA      #0x00005e7c,A0
000013F0   0c28 003d 001e                   CMP.B     #0x3d,(D_001e,A0)
000013F6   670c                             BEQ       B_1404
000013F8   207c 0000 5e7c                   MOVE      #0x00005e7c,A0
000013FE   1030 701e                        MOVE.B    (D_1e,A0,D7.W),D0
00001402   66e2                             BNE       B_13e6
00001404   3047                             MOVE.W    D7,A0
00001406   d1fc 0000 5e7c                   ADDA      #0x00005e7c,A0
0000140C   0c28 003d 001e                   CMP.B     #0x3d,(D_001e,A0)
00001412   661e                             BNE       B_1432
00001414   3007                             MOVE.W    D7,D0
00001416   6314                             BLS       B_142c
00001418   207c 0000 5e7c                   MOVE      #0x00005e7c,A0
0000141E   1030 701f                        MOVE.B    (D_1f,A0,D7.W),D0
00001422   6708                             BEQ       B_142c
00001424   1039 0000 5eb8                   MOVE.B    A_00005eb8,D0
0000142A   6704                             BEQ       B_1430
0000142C   383c 0001                        MOVE.W    #0x0001,D4
00001430   601e                             BRA       B_1450
00001432   0c39 003d 0000 5eb8              CMP.B     #0x3d,A_00005eb8
0000143A   6610                             BNE       B_144c
0000143C   1039 0000 5eb9                   MOVE.B    A_00005eb9,D0
00001442   6608                             BNE       B_144c
00001444   1039 0000 5ed6                   MOVE.B    A_00005ed6,D0
0000144A   6604                             BNE       B_1450
0000144C   383c 0001                        MOVE.W    #0x0001,D4
00001450   3004                             MOVE.W    D4,D0
00001452   6648                             BNE       B_149c
00001454   3047                             MOVE.W    D7,A0
00001456   d1fc 0000 5e7c                   ADDA      #0x00005e7c,A0
0000145C   0c28 003d 001e                   CMP.B     #0x3d,(D_001e,A0)
00001462   6638                             BNE       B_149c
00001464   3047                             MOVE.W    D7,A0
00001466   d1fc 0000 5e7c                   ADDA      #0x00005e7c,A0
0000146C   4228 001e                        CLR.B     (D_001e,A0)
00001470   5247                             ADDQ.W    #1,D7
00001472   4246                             CLR.W     D6
00001474   207c 0000 5e7c                   MOVE      #0x00005e7c,A0
0000147A   1030 701e                        MOVE.B    (D_1e,A0,D7.W),D0
0000147E   4880                             EXT.W     D0
00001480   3246                             MOVE.W    D6,A1
00001482   d3fc 0000 5e7c                   ADDA      #0x00005e7c,A1
00001488   1340 005a                        MOVE.B    D0,(D_005a,A1)
0000148C   5247                             ADDQ.W    #1,D7
0000148E   5246                             ADDQ.W    #1,D6
00001490   4a40                             TST.W     D0
00001492   66e0                             BNE       B_1474
00001494   13fc 003d 0000 5eb8              MOVE.B    #0x003d,A_00005eb8
0000149C   3c3c 0001                        MOVE.W    #0x0001,D6
000014A0   6000 00a6                        BRA.L     B_1548
000014A4   4245                             CLR.W     D5
000014A6   6002                             BRA       B_14aa
000014A8   5245                             ADDQ.W    #1,D5
000014AA   91c8                             SUBA      A0,A0
000014AC   3045                             MOVE.W    D5,A0
000014AE   3206                             MOVE.W    D6,D1
000014B0   c2fc 001e d1c1                   MULU      #0x001ed1c1,D1
000014B6   d1fc 0000 5e7c                   ADDA      #0x00005e7c,A0
000014BC   0c10 003a                        CMP.B     #0x3a,(A0)
000014C0   6718                             BEQ       B_14da
000014C2   91c8                             SUBA      A0,A0
000014C4   3045                             MOVE.W    D5,A0
000014C6   3206                             MOVE.W    D6,D1
000014C8   c2fc 001e d1c1                   MULU      #0x001ed1c1,D1
000014CE   227c 0000 5e7c                   MOVE      #0x00005e7c,A1
000014D4   1030 9800                        MOVE.B    (D_00,A0,A1.L),D0
000014D8   66ce                             BNE       B_14a8
000014DA   ba7c 0001                        CMP.W     #0x0001,D5
000014DE   631c                             BLS       B_14fc
000014E0   91c8                             SUBA      A0,A0
000014E2   3045                             MOVE.W    D5,A0
000014E4   3206                             MOVE.W    D6,D1
000014E6   c2fc 001e d1c1                   MULU      #0x001ed1c1,D1
000014EC   d1fc 0000 5e7c                   ADDA      #0x00005e7c,A0
000014F2   0c10 003a                        CMP.B     #0x3a,(A0)
000014F6   6604                             BNE       B_14fc
000014F8   383c 0001                        MOVE.W    #0x0001,D4
000014FC   4247                             CLR.W     D7
000014FE   6040                             BRA       B_1540
00001500   3006                             MOVE.W    D6,D0
00001502   c0fc 001e 2040                   MULU      #0x001e2040,D0
00001508   227c 0000 5e7c                   MOVE      #0x00005e7c,A1
0000150E   1030 9800                        MOVE.B    (D_00,A0,A1.L),D0
00001512   4880                             EXT.W     D0
00001514   227c 0000 51d8                   MOVE      #0x000051d8,A1
0000151A   1231 7000                        MOVE.B    (D_00,A1,D7.W),D1
0000151E   4881                             EXT.W     D1
00001520   b041                             CMP.W     D1,D0
00001522   661a                             BNE       B_153e
00001524   4257                             CLR.W     (A7)
00001526   3006                             MOVE.W    D6,D0
00001528   c0fc 001e d0bc                   MULU      #0x001ed0bc,D0
0000152E   0000 5e7c                        OR.B      #0x5e7c,D0
00001532   2f00                             MOVE      D0,-(A7)
00001534   6100 f218                        BSR       B_1074e
00001538   588f                             ADDQ      #4,A7
0000153A   6000 01a4                        BRA.L     B_16e0
0000153E   5247                             ADDQ.W    #1,D7
00001540   be7c 0010                        CMP.W     #0x0010,D7
00001544   65ba                             BCS       B_1500
00001546   5446                             ADDQ.W    #2,D6
00001548   bc7c 0004                        CMP.W     #0x0004,D6
0000154C   6500 ff56                        BCS.L     B_114a4
00001550   3004                             MOVE.W    D4,D0
00001552   6600 0176                        BNE.L     B_16ca
00001556   1039 0000 5e9a                   MOVE.B    A_00005e9a,D0
0000155C   6700 016c                        BEQ.L     B_16ca
00001560   1039 0000 5ed6                   MOVE.B    A_00005ed6,D0
00001566   6700 0162                        BEQ.L     B_16ca
0000156A   2e8e                             MOVE      A6,(A7)
0000156C   0697 ffff ffdc                   ADD       #0xffffffdc,(A7)
00001572   3f3c 0001                        MOVE.W    #0x0001,-(A7)
00001576   6100 f66a                        BSR       B_10be2
0000157A   548f                             ADDQ      #2,A7
0000157C   3e00                             MOVE.W    D0,D7
0000157E   2ebc 0000 6150                   MOVE      #0x00006150,(A7)
00001584   3f3c 0003                        MOVE.W    #0x0003,-(A7)
00001588   6100 f658                        BSR       B_10be2
0000158C   548f                             ADDQ      #2,A7
0000158E   3c00                             MOVE.W    D0,D6
00001590   3007                             MOVE.W    D7,D0
00001592   6600 0104                        BNE.L     B_1698
00001596   3006                             MOVE.W    D6,D0
00001598   6600 00fe                        BNE.L     B_1698
0000159C   102e ffdc                        MOVE.B    (D_ffdc,A6),D0
000015A0   4880                             EXT.W     D0
000015A2   b039 0000 6150                   CMP.B     A_00006150,D0
000015A8   6740                             BEQ       B_15ea
000015AA   0c39 003a 0000 5e9b              CMP.B     #0x3a,A_00005e9b
000015B2   6614                             BNE       B_15c8
000015B4   0c39 003a 0000 5ed7              CMP.B     #0x3a,A_00005ed7
000015BC   670a                             BEQ       B_15c8
000015BE   13ee ffdc 0000 6150              MOVE.B    (D_ffdc,A6),A_00006150
000015C6   6022                             BRA       B_15ea
000015C8   0c39 003a 0000 5e9b              CMP.B     #0x3a,A_00005e9b
000015D0   6714                             BEQ       B_15e6
000015D2   0c39 003a 0000 5ed7              CMP.B     #0x3a,A_00005ed7
000015DA   660a                             BNE       B_15e6
000015DC   1d79 0000 6150 ffdc              MOVE.B    A_00006150,(D_ffdc,A6)
000015E4   6004                             BRA       B_15ea
000015E6   383c 0001                        MOVE.W    #0x0001,D4
000015EA   0c2e 0001 ffdc                   CMP.B     #0x1,(D_ffdc,A6)
000015F0   6d08                             BLT       B_15fa
000015F2   0c2e 0010 ffdc                   CMP.B     #0x10,(D_ffdc,A6)
000015F8   6f04                             BLE       B_15fe
000015FA   383c 0001                        MOVE.W    #0x0001,D4
000015FE   3004                             MOVE.W    D4,D0
00001600   662e                             BNE       B_1630
00001602   2e8e                             MOVE      A6,(A7)
00001604   0697 ffff ffdc                   ADD       #0xffffffdc,(A7)
0000160A   3f3c 0011                        MOVE.W    #0x0011,-(A7)
0000160E   4eb9 0000 04ca                   JSR       A_000004ca
00001614   548f                             ADDQ      #2,A7
00001616   b07c 00ff                        CMP.W     #0x00ff,D0
0000161A   6714                             BEQ       B_1630
0000161C   2ebc 0000 50a2                   MOVE      #0x000050a2,(A7)
00001622   3f3c 0009                        MOVE.W    #0x0009,-(A7)
00001626   4eb9 0000 04ca                   JSR       A_000004ca
0000162C   548f                             ADDQ      #2,A7
0000162E   6066                             BRA       B_1696
00001630   4245                             CLR.W     D5
00001632   3e3c 0010                        MOVE.W    #0x0010,D7
00001636   6016                             BRA       B_164e
00001638   3047                             MOVE.W    D7,A0
0000163A   d1fc 0000 6150                   ADDA      #0x00006150,A0
00001640   224e                             MOVE      A6,A1
00001642   3445                             MOVE.W    D5,A2
00001644   d3ca                             ADDA      A2,A1
00001646   10a9 ffdc                        MOVE.B    (D_ffdc,A1),(A0)
0000164A   5245                             ADDQ.W    #1,D5
0000164C   5247                             ADDQ.W    #1,D7
0000164E   be7c 0023                        CMP.W     #0x0023,D7
00001652   63e4                             BLS       B_1638
00001654   1039 0000 6150                   MOVE.B    A_00006150,D0
0000165A   6d0a                             BLT       B_1666
0000165C   0c39 000f 0000 6150              CMP.B     #0xf,A_00006150
00001664   6f04                             BLE       B_166a
00001666   383c 0001                        MOVE.W    #0x0001,D4
0000166A   3004                             MOVE.W    D4,D0
0000166C   6628                             BNE       B_1696
0000166E   2ebc 0000 6150                   MOVE      #0x00006150,(A7)
00001674   3f3c 0017                        MOVE.W    #0x0017,-(A7)
00001678   4eb9 0000 04ca                   JSR       A_000004ca
0000167E   548f                             ADDQ      #2,A7
00001680   4a40                             TST.W     D0
00001682   6312                             BLS       B_1696
00001684   2ebc 0000 50b8                   MOVE      #0x000050b8,(A7)
0000168A   3f3c 0009                        MOVE.W    #0x0009,-(A7)
0000168E   4eb9 0000 04ca                   JSR       A_000004ca
00001694   548f                             ADDQ      #2,A7
00001696   6032                             BRA       B_16ca
00001698   be7c 000c                        CMP.W     #0x000c,D7
0000169C   6706                             BEQ       B_16a4
0000169E   bc7c 000c                        CMP.W     #0x000c,D6
000016A2   6614                             BNE       B_16b8
000016A4   2ebc 0000 50b8                   MOVE      #0x000050b8,(A7)
000016AA   3f3c 0009                        MOVE.W    #0x0009,-(A7)
000016AE   4eb9 0000 04ca                   JSR       A_000004ca
000016B4   548f                             ADDQ      #2,A7
000016B6   6012                             BRA       B_16ca
000016B8   2ebc 0000 50c2                   MOVE      #0x000050c2,(A7)
000016BE   3f3c 0009                        MOVE.W    #0x0009,-(A7)
000016C2   4eb9 0000 04ca                   JSR       A_000004ca
000016C8   548f                             ADDQ      #2,A7
000016CA   3004                             MOVE.W    D4,D0
000016CC   6712                             BEQ       B_16e0
000016CE   2ebc 0000 50da                   MOVE      #0x000050da,(A7)
000016D4   3f3c 0009                        MOVE.W    #0x0009,-(A7)
000016D8   4eb9 0000 04ca                   JSR       A_000004ca
000016DE   548f                             ADDQ      #2,A7
000016E0   4a9f                             TST       (A7)+
000016E2   4cdf 00f0                        MOVEM     (A7)+,REGS D4-7
000016E6   4e5e                             UNLK      a6
000016E8   4e75                             RTS
000016EA   4e56 0000                        LINK      A6,0x0
000016EE   48e7 0300                        MOVEM     REGS D67,-(A7)
000016F2   1039 0000 5e9a                   MOVE.B    A_00005e9a,D0
000016F8   6624                             BNE       B_171e
000016FA   2ebc 0000 506c                   MOVE      #0x0000506c,(A7)
00001700   3f3c 0009                        MOVE.W    #0x0009,-(A7)
00001704   4eb9 0000 04ca                   JSR       A_000004ca
0000170A   548f                             ADDQ      #2,A7
0000170C   2ebc 0000 001d                   MOVE      #0x0000001d,(A7)
00001712   2f3c 0000 5e9a                   MOVE      #0x00005e9a,-(A7)
00001718   6100 f27a                        BSR       B_10994
0000171C   588f                             ADDQ      #4,A7
0000171E   1039 0000 5e9a                   MOVE.B    A_00005e9a,D0
00001724   6700 0156                        BEQ.L     B_187c
00001728   6100 f844                        BSR       B_10f6e
0000172C   4a40                             TST.W     D0
0000172E   6600 014c                        BNE.L     B_187c
00001732   6100 f872                        BSR       B_10fa6
00001736   3e00                             MOVE.W    D0,D7
00001738   3e87                             MOVE.W    D7,(A7)
0000173A   6100 f8a0                        BSR       B_10fdc
0000173E   4a40                             TST.W     D0
00001740   6700 013a                        BEQ.L     B_187c
00001744   0c39 003a 0000 5e9b              CMP.B     #0x3a,A_00005e9b
0000174C   661a                             BNE       B_1768
0000174E   1039 0000 5e9c                   MOVE.B    A_00005e9c,D0
00001754   6612                             BNE       B_1768
00001756   4257                             CLR.W     (A7)
00001758   2f3c 0000 5e9a                   MOVE      #0x00005e9a,-(A7)
0000175E   6100 efee                        BSR       B_1074e
00001762   588f                             ADDQ      #4,A7
00001764   6000 0116                        BRA.L     B_187c
00001768   2ebc 0000 6150                   MOVE      #0x00006150,(A7)
0000176E   3f3c 0001                        MOVE.W    #0x0001,-(A7)
00001772   6100 f46e                        BSR       B_10be2
00001776   548f                             ADDQ      #2,A7
00001778   3e00                             MOVE.W    D0,D7
0000177A   3007                             MOVE.W    D7,D0
0000177C   6300 008a                        BLS.L     B_1808
00001780   be7c 000b                        CMP.W     #0x000b,D7
00001784   6200 0082                        BHI.L     B_1808
00001788   1039 0000 5644                   MOVE.B    A_00005644,D0
0000178E   6600 0078                        BNE.L     B_1808
00001792   2ebc 0000 50f8                   MOVE      #0x000050f8,(A7)
00001798   3f3c 0009                        MOVE.W    #0x0009,-(A7)
0000179C   4eb9 0000 04ca                   JSR       A_000004ca
000017A2   548f                             ADDQ      #2,A7
000017A4   4297                             CLR       (A7)
000017A6   3f3c 0001                        MOVE.W    #0x0001,-(A7)
000017AA   4eb9 0000 04ca                   JSR       A_000004ca
000017B0   548f                             ADDQ      #2,A7
000017B2   4880                             EXT.W     D0
000017B4   13c0 0000 5eb8                   MOVE.B    D0,A_00005eb8
000017BA   0c39 0061 0000 5eb8              CMP.B     #0x61,A_00005eb8
000017C2   6d18                             BLT       B_17dc
000017C4   0c39 007a 0000 5eb8              CMP.B     #0x7a,A_00005eb8
000017CC   6e0e                             BGT       B_17dc
000017CE   1039 0000 5eb8                   MOVE.B    A_00005eb8,D0
000017D4   4880                             EXT.W     D0
000017D6   d07c ffe0                        ADD.W     #0xffe0,D0
000017DA   6008                             BRA       B_17e4
000017DC   1039 0000 5eb8                   MOVE.B    A_00005eb8,D0
000017E2   4880                             EXT.W     D0
000017E4   4880                             EXT.W     D0
000017E6   13c0 0000 5eb8                   MOVE.B    D0,A_00005eb8
000017EC   6100 edd6                        BSR       B_105c4
000017F0   0c39 004e 0000 5eb8              CMP.B     #0x4e,A_00005eb8
000017F8   670c                             BEQ       B_1806
000017FA   0c39 0059 0000 5eb8              CMP.B     #0x59,A_00005eb8
00001802   6600 0078                        BNE.L     B_187c
00001806   601a                             BRA       B_1822
00001808   be7c 000b                        CMP.W     #0x000b,D7
0000180C   6314                             BLS       B_1822
0000180E   2ebc 0000 50b8                   MOVE      #0x000050b8,(A7)
00001814   3f3c 0009                        MOVE.W    #0x0009,-(A7)
00001818   4eb9 0000 04ca                   JSR       A_000004ca
0000181E   548f                             ADDQ      #2,A7
00001820   605a                             BRA       B_187c
00001822   0c39 004e 0000 5eb8              CMP.B     #0x4e,A_00005eb8
0000182A   6750                             BEQ       B_187c
0000182C   2ebc 0000 6150                   MOVE      #0x00006150,(A7)
00001832   3f3c 0013                        MOVE.W    #0x0013,-(A7)
00001836   4eb9 0000 04ca                   JSR       A_000004ca
0000183C   548f                             ADDQ      #2,A7
0000183E   4a40                             TST.W     D0
00001840   6314                             BLS       B_1856
00001842   2ebc 0000 50b8                   MOVE      #0x000050b8,(A7)
00001848   3f3c 0009                        MOVE.W    #0x0009,-(A7)
0000184C   4eb9 0000 04ca                   JSR       A_000004ca
00001852   548f                             ADDQ      #2,A7
00001854   6026                             BRA       B_187c
00001856   3e3c 000b                        MOVE.W    #0x000b,D7
0000185A   6720                             BEQ       B_187c
0000185C   303c 0001                        MOVE.W    #0x0001,D0
00001860   1239 0000 6150                   MOVE.B    A_00006150,D1
00001866   4881                             EXT.W     D1
00001868   5341                             SUBQ.W    #1,D1
0000186A   e360                             ASL.W     D1,D0
0000186C   48c0                             EXT.L     D0
0000186E   2e80                             MOVE      D0,(A7)
00001870   3f3c 0025                        MOVE.W    #0x0025,-(A7)
00001874   4eb9 0000 04ca                   JSR       A_000004ca
0000187A   548f                             ADDQ      #2,A7
0000187C   4a9f                             TST       (A7)+
0000187E   4cdf 0080                        MOVEM     (A7)+,REGS D7
00001882   4e5e                             UNLK      a6
00001884   4e75                             RTS
00001886   4e56 0000                        LINK      A6,0x0
0000188A   48e7 0300                        MOVEM     REGS D67,-(A7)
0000188E   1039 0000 5e9a                   MOVE.B    A_00005e9a,D0
00001894   6624                             BNE       B_18ba
00001896   2ebc 0000 5108                   MOVE      #0x00005108,(A7)
0000189C   3f3c 0009                        MOVE.W    #0x0009,-(A7)
000018A0   4eb9 0000 04ca                   JSR       A_000004ca
000018A6   548f                             ADDQ      #2,A7
000018A8   2ebc 0000 001d                   MOVE      #0x0000001d,(A7)
000018AE   2f3c 0000 5e9a                   MOVE      #0x00005e9a,-(A7)
000018B4   6100 f0de                        BSR       B_10994
000018B8   588f                             ADDQ      #4,A7
000018BA   1039 0000 5e9a                   MOVE.B    A_00005e9a,D0
000018C0   6608                             BNE       B_18ca
000018C2   303c 0001                        MOVE.W    #0x0001,D0
000018C6   6000 0084                        BRA.L     B_194c
000018CA   6100 f6a2                        BSR       B_10f6e
000018CE   4a40                             TST.W     D0
000018D0   6708                             BEQ       B_18da
000018D2   303c 0001                        MOVE.W    #0x0001,D0
000018D6   6000 0074                        BRA.L     B_194c
000018DA   0c39 0030 0000 5e9a              CMP.B     #0x30,A_00005e9a
000018E2   6d0a                             BLT       B_18ee
000018E4   0c39 0039 0000 5e9a              CMP.B     #0x39,A_00005e9a
000018EC   6f04                             BLE       B_18f2
000018EE   4240                             CLR.W     D0
000018F0   605a                             BRA       B_194c
000018F2   1e39 0000 5e9a                   MOVE.B    A_00005e9a,D7
000018F8   4887                             EXT.W     D7
000018FA   de7c ffd0                        ADD.W     #0xffd0,D7
000018FE   be7c 0009                        CMP.W     #0x0009,D7
00001902   6304                             BLS       B_1908
00001904   4240                             CLR.W     D0
00001906   6044                             BRA       B_194c
00001908   1039 0000 5e9b                   MOVE.B    A_00005e9b,D0
0000190E   6712                             BEQ       B_1922
00001910   cefc 000a 1039                   MULU      #0x000a1039,D7
00001916   0000 5e9b                        OR.B      #0x5e9b,D0
0000191A   4880                             EXT.W     D0
0000191C   de40                             ADD.W     D0,D7
0000191E   de7c ffd0                        ADD.W     #0xffd0,D7
00001922   be7c 0010                        CMP.W     #0x0010,D7
00001926   641c                             BCC       B_1944
00001928   1039 0000 5e9c                   MOVE.B    A_00005e9c,D0
0000192E   6614                             BNE       B_1944
00001930   4280                             CLR       D0
00001932   3007                             MOVE.W    D7,D0
00001934   2e80                             MOVE      D0,(A7)
00001936   3f3c 0020                        MOVE.W    #0x0020,-(A7)
0000193A   4eb9 0000 04ca                   JSR       A_000004ca
00001940   548f                             ADDQ      #2,A7
00001942   6004                             BRA       B_1948
00001944   4240                             CLR.W     D0
00001946   6004                             BRA       B_194c
00001948   303c 0001                        MOVE.W    #0x0001,D0
0000194C   4a9f                             TST       (A7)+
0000194E   4cdf 0080                        MOVEM     (A7)+,REGS D7
00001952   4e5e                             UNLK      a6
00001954   4e75                             RTS
00001956   4e56 fff4                        LINK      A6,0xfff4
0000195A   48e7 070c                        MOVEM     REGS D5-7A45,-(A7)
0000195E   4239 0000 614e                   CLR.B     A_0000614e
00001964   13fc 0001 0000 5d84              MOVE.B    #0x0001,A_00005d84
0000196C   422e fffe                        CLR.B     (D_fffe,A6)
00001970   422e fff8                        CLR.B     (D_fff8,A6)
00001974   422e fffa                        CLR.B     (D_fffa,A6)
00001978   422e fffc                        CLR.B     (D_fffc,A6)
0000197C   2ebc 0000 00ff                   MOVE      #0x000000ff,(A7)
00001982   3f3c 0020                        MOVE.W    #0x0020,-(A7)
00001986   4eb9 0000 04ca                   JSR       A_000004ca
0000198C   548f                             ADDQ      #2,A7
0000198E   33c0 0000 60aa                   MOVE.W    D0,A_000060aa
00001994   4297                             CLR       (A7)
00001996   3f3c 0019                        MOVE.W    #0x0019,-(A7)
0000199A   4eb9 0000 04ca                   JSR       A_000004ca
000019A0   548f                             ADDQ      #2,A7
000019A2   33c0 0000 5e7a                   MOVE.W    D0,A_00005e7a
000019A8   0c6e 000a 0008                   CMP.W     #0xa,(D_0008,A6)
000019AE   6604                             BNE       B_19b4
000019B0   4247                             CLR.W     D7
000019B2   6004                             BRA       B_19b8
000019B4   3e3c 0001                        MOVE.W    #0x0001,D7
000019B8   2ebc 0000 6150                   MOVE      #0x00006150,(A7)
000019BE   3f07                             MOVE.W    D7,-(A7)
000019C0   6100 f220                        BSR       B_10be2
000019C4   548f                             ADDQ      #2,A7
000019C6   3e00                             MOVE.W    D0,D7
000019C8   3007                             MOVE.W    D7,D0
000019CA   6318                             BLS       B_19e4
000019CC   2ebc 0000 50c2                   MOVE      #0x000050c2,(A7)
000019D2   3f3c 0009                        MOVE.W    #0x0009,-(A7)
000019D6   4eb9 0000 04ca                   JSR       A_000004ca
000019DC   548f                             ADDQ      #2,A7
000019DE   4240                             CLR.W     D0
000019E0   6000 0484                        BRA.L     B_1e66
000019E4   287c 0000 5716                   MOVE      #0x00005716,A4
000019EA   2a54                             MOVE      (A4),A5
000019EC   0c39 0020 0000 6159              CMP.B     #0x20,A_00006159
000019F4   6600 022a                        BNE.L     B_1c20
000019F8   6012                             BRA       B_1a0c
000019FA   4240                             CLR.W     D0
000019FC   1940 0009                        MOVE.B    D0,(D_0009,A4)
00001A00   4880                             EXT.W     D0
00001A02   1940 0008                        MOVE.B    D0,(D_0008,A4)
00001A06   d9fc 0000 000a                   ADDA      #0x0000000a,A4
00001A0C   2054                             MOVE      (A4),A0
00001A0E   4a10                             TST.B     (A0)
00001A10   66e8                             BNE       B_19fa
00001A12   1039 0000 6150                   MOVE.B    A_00006150,D0
00001A18   4880                             EXT.W     D0
00001A1A   5340                             SUBQ.W    #1,D0
00001A1C   48c0                             EXT.L     D0
00001A1E   2e80                             MOVE      D0,(A7)
00001A20   3f3c 000e                        MOVE.W    #0x000e,-(A7)
00001A24   4eb9 0000 04ca                   JSR       A_000004ca
00001A2A   548f                             ADDQ      #2,A7
00001A2C   13fc 003f 0000 6150              MOVE.B    #0x003f,A_00006150
00001A34   4239 0000 615c                   CLR.B     A_0000615c
00001A3A   2ebc 0000 6150                   MOVE      #0x00006150,(A7)
00001A40   3f3c 0011                        MOVE.W    #0x0011,-(A7)
00001A44   4eb9 0000 04ca                   JSR       A_000004ca
00001A4A   548f                             ADDQ      #2,A7
00001A4C   3e00                             MOVE.W    D0,D7
00001A4E   6000 00ee                        BRA.L     B_1b3e
00001A52   eb4f                             LSL.W     #5,D7
00001A54   3047                             MOVE.W    D7,A0
00001A56   d1fc 0000 5ef4                   ADDA      #0x00005ef4,A0
00001A5C   4a10                             TST.B     (A0)
00001A5E   6716                             BEQ       B_1a76
00001A60   207c 0000 5ef4                   MOVE      #0x00005ef4,A0
00001A66   1030 7000                        MOVE.B    (D_00,A0,D7.W),D0
00001A6A   4880                             EXT.W     D0
00001A6C   b079 0000 60aa                   CMP.W     A_000060aa,D0
00001A72   6600 00be                        BNE.L     B_1b32
00001A76   3c3c 0009                        MOVE.W    #0x0009,D6
00001A7A   6012                             BRA       B_1a8e
00001A7C   3047                             MOVE.W    D7,A0
00001A7E   3246                             MOVE.W    D6,A1
00001A80   d0c9                             ADDA.W    A1,A0
00001A82   d1fc 0000 5ef4                   ADDA      #0x00005ef4,A0
00001A88   0210 007f                        AND.B     #0x7f,(A0)
00001A8C   5246                             ADDQ.W    #1,D6
00001A8E   bc7c 000b                        CMP.W     #0x000b,D6
00001A92   63e8                             BLS       B_1a7c
00001A94   3047                             MOVE.W    D7,A0
00001A96   d1fc 0000 5ef4                   ADDA      #0x00005ef4,A0
00001A9C   4228 000c                        CLR.B     (D_000c,A0)
00001AA0   287c 0000 5716                   MOVE      #0x00005716,A4
00001AA6   6000 0082                        BRA.L     B_1b2a
00001AAA   2ebc 0000 6159                   MOVE      #0x00006159,(A7)
00001AB0   2f14                             MOVE      (A4),-(A7)
00001AB2   6100 eb3c                        BSR       B_105f0
00001AB6   588f                             ADDQ      #4,A7
00001AB8   3007                             MOVE.W    D7,D0
00001ABA   4840                             SWAP      d0
00001ABC   4240                             CLR.W     D0
00001ABE   4840                             SWAP      d0
00001AC0   d0bc 0000 5ef4                   ADD       #0x00005ef4,D0
00001AC6   2e80                             MOVE      D0,(A7)
00001AC8   5297                             ADDQ      #1,(A7)
00001ACA   2f3c 0000 6151                   MOVE      #0x00006151,-(A7)
00001AD0   6100 eb3c                        BSR       B_1060e
00001AD4   588f                             ADDQ      #4,A7
00001AD6   4a40                             TST.W     D0
00001AD8   664a                             BNE       B_1b24
00001ADA   1d7c 0001 fff8                   MOVE.B    #0x0001,(D_fff8,A6)
00001AE0   207c 0000 5ef4                   MOVE      #0x00005ef4,A0
00001AE6   1030 7000                        MOVE.B    (D_00,A0,D7.W),D0
00001AEA   4880                             EXT.W     D0
00001AEC   b079 0000 60aa                   CMP.W     A_000060aa,D0
00001AF2   6608                             BNE       B_1afc
00001AF4   197c 0001 0008                   MOVE.B    #0x0001,(D_0008,A4)
00001AFA   6006                             BRA       B_1b02
00001AFC   197c 0001 0009                   MOVE.B    #0x0001,(D_0009,A4)
00001B02   0c6e 000a 0008                   CMP.W     #0xa,(D_0008,A6)
00001B08   661a                             BNE       B_1b24
00001B0A   2e8d                             MOVE      A5,(A7)
00001B0C   2f14                             MOVE      (A4),-(A7)
00001B0E   6100 eafe                        BSR       B_1060e
00001B12   588f                             ADDQ      #4,A7
00001B14   4a40                             TST.W     D0
00001B16   660c                             BNE       B_1b24
00001B18   102c 0008                        MOVE.B    (D_0008,A4),D0
00001B1C   6706                             BEQ       B_1b24
00001B1E   1d7c 0001 fffe                   MOVE.B    #0x0001,(D_fffe,A6)
00001B24   d9fc 0000 000a                   ADDA      #0x0000000a,A4
00001B2A   2054                             MOVE      (A4),A0
00001B2C   4a10                             TST.B     (A0)
00001B2E   6600 ff7a                        BNE.L     B_11aaa
00001B32   3ebc 0012                        MOVE.W    #0x0012,(A7)
00001B36   4eb9 0000 04ca                   JSR       A_000004ca
00001B3C   3e00                             MOVE.W    D0,D7
00001B3E   be7c 00ff                        CMP.W     #0x00ff,D7
00001B42   6708                             BEQ       B_1b4c
00001B44   102e fffe                        MOVE.B    (D_fffe,A6),D0
00001B48   6700 ff08                        BEQ.L     B_11a52
00001B4C   102e fff8                        MOVE.B    (D_fff8,A6),D0
00001B50   6644                             BNE       B_1b96
00001B52   0c6e 0007 0008                   CMP.W     #0x7,(D_0008,A6)
00001B58   6612                             BNE       B_1b6c
00001B5A   2ebc 0000 511a                   MOVE      #0x0000511a,(A7)
00001B60   3f3c 0009                        MOVE.W    #0x0009,-(A7)
00001B64   4eb9 0000 04ca                   JSR       A_000004ca
00001B6A   548f                             ADDQ      #2,A7
00001B6C   13fc 0001 0000 614e              MOVE.B    #0x0001,A_0000614e
00001B74   4239 0000 5d84                   CLR.B     A_00005d84
00001B7A   4280                             CLR       D0
00001B7C   3039 0000 5e7a                   MOVE.W    A_00005e7a,D0
00001B82   2e80                             MOVE      D0,(A7)
00001B84   3f3c 000e                        MOVE.W    #0x000e,-(A7)
00001B88   4eb9 0000 04ca                   JSR       A_000004ca
00001B8E   548f                             ADDQ      #2,A7
00001B90   4240                             CLR.W     D0
00001B92   6000 02d2                        BRA.L     B_1e66
00001B96   0c6e 000a 0008                   CMP.W     #0xa,(D_0008,A6)
00001B9C   6610                             BNE       B_1bae
00001B9E   2ebc 0000 6150                   MOVE      #0x00006150,(A7)
00001BA4   4267                             CLR.W     -(A7)
00001BA6   6100 f03a                        BSR       B_10be2
00001BAA   548f                             ADDQ      #2,A7
00001BAC   6010                             BRA       B_1bbe
00001BAE   2ebc 0000 6150                   MOVE      #0x00006150,(A7)
00001BB4   3f3c 0001                        MOVE.W    #0x0001,-(A7)
00001BB8   6100 f028                        BSR       B_10be2
00001BBC   548f                             ADDQ      #2,A7
00001BBE   287c 0000 5716                   MOVE      #0x00005716,A4
00001BC4   602c                             BRA       B_1bf2
00001BC6   102c 0008                        MOVE.B    (D_0008,A4),D0
00001BCA   6606                             BNE       B_1bd2
00001BCC   102c 0009                        MOVE.B    (D_0009,A4),D0
00001BD0   671a                             BEQ       B_1bec
00001BD2   0c6e 000a 0008                   CMP.W     #0xa,(D_0008,A6)
00001BD8   671e                             BEQ       B_1bf8
00001BDA   2ebc 0000 526a                   MOVE      #0x0000526a,(A7)
00001BE0   2f14                             MOVE      (A4),-(A7)
00001BE2   6100 ea2a                        BSR       B_1060e
00001BE6   588f                             ADDQ      #4,A7
00001BE8   4a40                             TST.W     D0
00001BEA   670c                             BEQ       B_1bf8
00001BEC   d9fc 0000 000a                   ADDA      #0x0000000a,A4
00001BF2   2054                             MOVE      (A4),A0
00001BF4   4a10                             TST.B     (A0)
00001BF6   66ce                             BNE       B_1bc6
00001BF8   2054                             MOVE      (A4),A0
00001BFA   4a10                             TST.B     (A0)
00001BFC   6722                             BEQ       B_1c20
00001BFE   102c 0008                        MOVE.B    (D_0008,A4),D0
00001C02   660e                             BNE       B_1c12
00001C04   4297                             CLR       (A7)
00001C06   3f3c 0020                        MOVE.W    #0x0020,-(A7)
00001C0A   4eb9 0000 04ca                   JSR       A_000004ca
00001C10   548f                             ADDQ      #2,A7
00001C12   2ebc 0000 6159                   MOVE      #0x00006159,(A7)
00001C18   2f14                             MOVE      (A4),-(A7)
00001C1A   6100 e9d4                        BSR       B_105f0
00001C1E   588f                             ADDQ      #4,A7
00001C20   4280                             CLR       D0
00001C22   3039 0000 5e7a                   MOVE.W    A_00005e7a,D0
00001C28   2e80                             MOVE      D0,(A7)
00001C2A   3f3c 000e                        MOVE.W    #0x000e,-(A7)
00001C2E   4eb9 0000 04ca                   JSR       A_000004ca
00001C34   548f                             ADDQ      #2,A7
00001C36   6000 0104                        BRA.L     B_1d3c
00001C3A   2ebc 0000 6150                   MOVE      #0x00006150,(A7)
00001C40   3f3c 000f                        MOVE.W    #0x000f,-(A7)
00001C44   4eb9 0000 04ca                   JSR       A_000004ca
00001C4A   548f                             ADDQ      #2,A7
00001C4C   b07c 0003                        CMP.W     #0x0003,D0
00001C50   6200 00c6                        BHI.L     B_1d18
00001C54   3c3c 0009                        MOVE.W    #0x0009,D6
00001C58   600e                             BRA       B_1c68
00001C5A   3046                             MOVE.W    D6,A0
00001C5C   d1fc 0000 6150                   ADDA      #0x00006150,A0
00001C62   0210 007f                        AND.B     #0x7f,(A0)
00001C66   5246                             ADDQ.W    #1,D6
00001C68   bc7c 000b                        CMP.W     #0x000b,D6
00001C6C   63ec                             BLS       B_1c5a
00001C6E   0c39 0053 0000 6159              CMP.B     #0x53,A_00006159
00001C76   6600 008e                        BNE.L     B_1d06
00001C7A   0c39 0055 0000 615a              CMP.B     #0x55,A_0000615a
00001C82   6600 0082                        BNE.L     B_1d06
00001C86   0c39 0042 0000 615b              CMP.B     #0x42,A_0000615b
00001C8E   6600 0076                        BNE.L     B_1d06
00001C92   1d7c 0001 fffa                   MOVE.B    #0x0001,(D_fffa,A6)
00001C98   2ebc 0000 00ff                   MOVE      #0x000000ff,(A7)
00001C9E   3f3c 0020                        MOVE.W    #0x0020,-(A7)
00001CA2   4eb9 0000 04ca                   JSR       A_000004ca
00001CA8   548f                             ADDQ      #2,A7
00001CAA   33c0 0000 5f7c                   MOVE.W    D0,A_00005f7c
00001CB0   1039 0000 5644                   MOVE.B    A_00005644,D0
00001CB6   670a                             BEQ       B_1cc2
00001CB8   13fc 0001 0000 614a              MOVE.B    #0x0001,A_0000614a
00001CC0   6008                             BRA       B_1cca
00001CC2   13fc 0001 0000 6024              MOVE.B    #0x0001,A_00006024
00001CCA   4247                             CLR.W     D7
00001CCC   6014                             BRA       B_1ce2
00001CCE   3047                             MOVE.W    D7,A0
00001CD0   d1fc 0000 6000                   ADDA      #0x00006000,A0
00001CD6   3247                             MOVE.W    D7,A1
00001CD8   d3fc 0000 6150                   ADDA      #0x00006150,A1
00001CDE   1091                             MOVE.B    (A1),(A0)
00001CE0   5247                             ADDQ.W    #1,D7
00001CE2   be7c 0024                        CMP.W     #0x0024,D7
00001CE6   65e6                             BCS       B_1cce
00001CE8   0c6e 000a 0008                   CMP.W     #0xa,(D_0008,A6)
00001CEE   6606                             BNE       B_1cf6
00001CF0   4239 0000 60c0                   CLR.B     A_000060c0
00001CF6   13fc 0001 0000 5644              MOVE.B    #0x0001,A_00005644
00001CFE   4239 0000 60c2                   CLR.B     A_000060c2
00001D04   600e                             BRA       B_1d14
00001D06   0c6e 0007 0008                   CMP.W     #0x7,(D_0008,A6)
00001D0C   6706                             BEQ       B_1d14
00001D0E   1d7c 0001 fffc                   MOVE.B    #0x0001,(D_fffc,A6)
00001D14   602a                             BRA       B_1d40
00001D16   6024                             BRA       B_1d3c
00001D18   2ebc 0000 00ff                   MOVE      #0x000000ff,(A7)
00001D1E   3f3c 0020                        MOVE.W    #0x0020,-(A7)
00001D22   4eb9 0000 04ca                   JSR       A_000004ca
00001D28   548f                             ADDQ      #2,A7
00001D2A   4a40                             TST.W     D0
00001D2C   6712                             BEQ       B_1d40
00001D2E   4297                             CLR       (A7)
00001D30   3f3c 0020                        MOVE.W    #0x0020,-(A7)
00001D34   4eb9 0000 04ca                   JSR       A_000004ca
00001D3A   548f                             ADDQ      #2,A7
00001D3C   6000 fefc                        BRA.L     B_11c3a
00001D40   102e fffc                        MOVE.B    (D_fffc,A6),D0
00001D44   6700 00c2                        BEQ.L     B_1e08
00001D48   2eb9 0000 6146                   MOVE      A_00006146,(A7)
00001D4E   6100 ebc2                        BSR       B_10912
00001D52   102e fff8                        MOVE.B    (D_fff8,A6),D0
00001D56   6626                             BNE       B_1d7e
00001D58   287c 0000 5716                   MOVE      #0x00005716,A4
00001D5E   6018                             BRA       B_1d78
00001D60   2ebc 0000 6159                   MOVE      #0x00006159,(A7)
00001D66   2f14                             MOVE      (A4),-(A7)
00001D68   6100 e8a4                        BSR       B_1060e
00001D6C   588f                             ADDQ      #4,A7
00001D6E   4a40                             TST.W     D0
00001D70   670c                             BEQ       B_1d7e
00001D72   d9fc 0000 000a                   ADDA      #0x0000000a,A4
00001D78   2054                             MOVE      (A4),A0
00001D7A   4a10                             TST.B     (A0)
00001D7C   66e2                             BNE       B_1d60
00001D7E   2054                             MOVE      (A4),A0
00001D80   4a10                             TST.B     (A0)
00001D82   6708                             BEQ       B_1d8c
00001D84   2d6c 0004 fff4                   MOVE      (D_0004,A4),(D_fff4,A6)
00001D8A   6008                             BRA       B_1d94
00001D8C   2d7c 0000 04d6 fff4              MOVE      #0x000004d6,(D_fff4,A6)
00001D94   2f39 0000 6146                   MOVE      A_00006146,-(A7)
00001D9A   206e fff4                        MOVE      (D_fff4,A6),A0
00001D9E   4e90                             JSR       (A0)
00001DA0   588f                             ADDQ      #4,A7
00001DA2   6050                             BRA       B_1df4
00001DA4   2ebc 0000 515e                   MOVE      #0x0000515e,(A7)
00001DAA   3f3c 0009                        MOVE.W    #0x0009,-(A7)
00001DAE   4eb9 0000 04ca                   JSR       A_000004ca
00001DB4   548f                             ADDQ      #2,A7
00001DB6   6050                             BRA       B_1e08
00001DB8   2ebc 0000 5186                   MOVE      #0x00005186,(A7)
00001DBE   3f3c 0009                        MOVE.W    #0x0009,-(A7)
00001DC2   4eb9 0000 04ca                   JSR       A_000004ca
00001DC8   548f                             ADDQ      #2,A7
00001DCA   603c                             BRA       B_1e08
00001DCC   2ebc 0000 51a2                   MOVE      #0x000051a2,(A7)
00001DD2   3f3c 0009                        MOVE.W    #0x0009,-(A7)
00001DD6   4eb9 0000 04ca                   JSR       A_000004ca
00001DDC   548f                             ADDQ      #2,A7
00001DDE   6028                             BRA       B_1e08
00001DE0   2ebc 0000 51c4                   MOVE      #0x000051c4,(A7)
00001DE6   3f3c 0009                        MOVE.W    #0x0009,-(A7)
00001DEA   4eb9 0000 04ca                   JSR       A_000004ca
00001DF0   548f                             ADDQ      #2,A7
00001DF2   6014                             BRA       B_1e08
00001DF4   b07c 0001                        CMP.W     #0x0001,D0
00001DF8   67aa                             BEQ       B_1da4
00001DFA   b07c 0002                        CMP.W     #0x0002,D0
00001DFE   67b8                             BEQ       B_1db8
00001E00   b07c 0003                        CMP.W     #0x0003,D0
00001E04   67c6                             BEQ       B_1dcc
00001E06   60d8                             BRA       B_1de0
00001E08   102e fffa                        MOVE.B    (D_fffa,A6),D0
00001E0C   661a                             BNE       B_1e28
00001E0E   0c6e 0007 0008                   CMP.W     #0x7,(D_0008,A6)
00001E14   6612                             BNE       B_1e28
00001E16   2ebc 0000 511a                   MOVE      #0x0000511a,(A7)
00001E1C   3f3c 0009                        MOVE.W    #0x0009,-(A7)
00001E20   4eb9 0000 04ca                   JSR       A_000004ca
00001E26   548f                             ADDQ      #2,A7
00001E28   4280                             CLR       D0
00001E2A   3039 0000 60aa                   MOVE.W    A_000060aa,D0
00001E30   2e80                             MOVE      D0,(A7)
00001E32   3f3c 0020                        MOVE.W    #0x0020,-(A7)
00001E36   4eb9 0000 04ca                   JSR       A_000004ca
00001E3C   548f                             ADDQ      #2,A7
00001E3E   13fc 0001 0000 614e              MOVE.B    #0x0001,A_0000614e
00001E46   4239 0000 5d84                   CLR.B     A_00005d84
00001E4C   4239 0000 5646                   CLR.B     A_00005646
00001E52   102e fffa                        MOVE.B    (D_fffa,A6),D0
00001E56   660a                             BNE       B_1e62
00001E58   102e fffc                        MOVE.B    (D_fffc,A6),D0
00001E5C   6604                             BNE       B_1e62
00001E5E   4240                             CLR.W     D0
00001E60   6004                             BRA       B_1e66
00001E62   303c 0001                        MOVE.W    #0x0001,D0
00001E66   4a9f                             TST       (A7)+
00001E68   4cdf 30c0                        MOVEM     (A7)+,REGS D67A45
00001E6C   4e5e                             UNLK      a6
00001E6E   4e75                             RTS
00001E70   4e56 fffc                        LINK      A6,0xfffc
00001E74   2ebc 0000 6000                   MOVE      #0x00006000,(A7)
00001E7A   3f3c 0014                        MOVE.W    #0x0014,-(A7)
00001E7E   4eb9 0000 04ca                   JSR       A_000004ca
00001E84   548f                             ADDQ      #2,A7
00001E86   4a40                             TST.W     D0
00001E88   670c                             BEQ       B_1e96
00001E8A   13fc 0001 0000 60c2              MOVE.B    #0x0001,A_000060c2
00001E92   4240                             CLR.W     D0
00001E94   6004                             BRA       B_1e9a
00001E96   303c 0001                        MOVE.W    #0x0001,D0
00001E9A   4e5e                             UNLK      a6
00001E9C   4e75                             RTS
00001E9E   4e56 0000                        LINK      A6,0x0
00001EA2   48e7 3f0c                        MOVEM     REGS D2-7A45,-(A7)
00001EA6   3e2e 0008                        MOVE.W    (D_0008,A6),D7
00001EAA   3c2e 000a                        MOVE.W    (D_000a,A6),D6
00001EAE   2a6e 000c                        MOVE      (D_000c,A6),A5
00001EB2   3839 0000 5d80                   MOVE.W    A_00005d80,D4
00001EB8   be7c 0080                        CMP.W     #0x0080,D7
00001EBC   650e                             BCS       B_1ecc
00001EBE   4247                             CLR.W     D7
00001EC0   61ae                             BSR.S     B_1e70
00001EC2   4a40                             TST.W     D0
00001EC4   6606                             BNE       B_1ecc
00001EC6   3007                             MOVE.W    D7,D0
00001EC8   6000 0110                        BRA.L     B_1fda
00001ECC   3047                             MOVE.W    D7,A0
00001ECE   d1fc 0000 6026                   ADDA      #0x00006026,A0
00001ED4   0c10 0030                        CMP.B     #0x30,(A0)
00001ED8   6d00 00b4                        BLT.L     B_1f8e
00001EDC   3047                             MOVE.W    D7,A0
00001EDE   d1fc 0000 6026                   ADDA      #0x00006026,A0
00001EE4   0c10 0039                        CMP.B     #0x39,(A0)
00001EE8   6e00 00a4                        BGT.L     B_1f8e
00001EEC   207c 0000 6026                   MOVE      #0x00006026,A0
00001EF2   1030 7000                        MOVE.B    (D_00,A0,D7.W),D0
00001EF6   4880                             EXT.W     D0
00001EF8   3600                             MOVE.W    D0,D3
00001EFA   d67c ffd0                        ADD.W     #0xffd0,D3
00001EFE   284d                             MOVE      A5,A4
00001F00   0c1c 0053                        CMP.B     #0x53,(A4)+
00001F04   6626                             BNE       B_1f2c
00001F06   0c1c 0055                        CMP.B     #0x55,(A4)+
00001F0A   6620                             BNE       B_1f2c
00001F0C   0c1c 0042                        CMP.B     #0x42,(A4)+
00001F10   661a                             BNE       B_1f2c
00001F12   0c1c 004d                        CMP.B     #0x4d,(A4)+
00001F16   6614                             BNE       B_1f2c
00001F18   0c1c 0049                        CMP.B     #0x49,(A4)+
00001F1C   660e                             BNE       B_1f2c
00001F1E   0c1c 0054                        CMP.B     #0x54,(A4)+
00001F22   6608                             BNE       B_1f2c
00001F24   0c14 0020                        CMP.B     #0x20,(A4)
00001F28   6602                             BNE       B_1f2c
00001F2A   5243                             ADDQ.W    #1,D3
00001F2C   284d                             MOVE      A5,A4
00001F2E   3a3c 0001                        MOVE.W    #0x0001,D5
00001F32   6018                             BRA       B_1f4c
00001F34   6002                             BRA       B_1f38
00001F36   528c                             ADDQ      #1,A4
00001F38   0c14 0020                        CMP.B     #0x20,(A4)
00001F3C   6704                             BEQ       B_1f42
00001F3E   1014                             MOVE.B    (A4),D0
00001F40   66f4                             BNE       B_1f36
00001F42   0c14 0020                        CMP.B     #0x20,(A4)
00001F46   6602                             BNE       B_1f4a
00001F48   528c                             ADDQ      #1,A4
00001F4A   5245                             ADDQ.W    #1,D5
00001F4C   ba43                             CMP.W     D3,D5
00001F4E   63e4                             BLS       B_1f34
00001F50   6028                             BRA       B_1f7a
00001F52   bc7c 0001                        CMP.W     #0x0001,D6
00001F56   660e                             BNE       B_1f66
00001F58   3044                             MOVE.W    D4,A0
00001F5A   d1fc 0000 60c4                   ADDA      #0x000060c4,A0
00001F60   109c                             MOVE.B    (A4)+,(A0)
00001F62   5244                             ADDQ.W    #1,D4
00001F64   6014                             BRA       B_1f7a
00001F66   101c                             MOVE.B    (A4)+,D0
00001F68   4880                             EXT.W     D0
00001F6A   48c0                             EXT.L     D0
00001F6C   2e80                             MOVE      D0,(A7)
00001F6E   3f3c 0002                        MOVE.W    #0x0002,-(A7)
00001F72   4eb9 0000 04ca                   JSR       A_000004ca
00001F78   548f                             ADDQ      #2,A7
00001F7A   0c14 0020                        CMP.B     #0x20,(A4)
00001F7E   670a                             BEQ       B_1f8a
00001F80   1014                             MOVE.B    (A4),D0
00001F82   6706                             BEQ       B_1f8a
00001F84   b87c 0080                        CMP.W     #0x0080,D4
00001F88   65c8                             BCS       B_1f52
00001F8A   5247                             ADDQ.W    #1,D7
00001F8C   6038                             BRA       B_1fc6
00001F8E   bc7c 0001                        CMP.W     #0x0001,D6
00001F92   6610                             BNE       B_1fa4
00001F94   3044                             MOVE.W    D4,A0
00001F96   d1fc 0000 60c4                   ADDA      #0x000060c4,A0
00001F9C   10bc 0024                        MOVE.B    #0x0024,(A0)
00001FA0   5244                             ADDQ.W    #1,D4
00001FA2   6012                             BRA       B_1fb6
00001FA4   2ebc 0000 0024                   MOVE      #0x00000024,(A7)
00001FAA   3f3c 0002                        MOVE.W    #0x0002,-(A7)
00001FAE   4eb9 0000 04ca                   JSR       A_000004ca
00001FB4   548f                             ADDQ      #2,A7
00001FB6   3047                             MOVE.W    D7,A0
00001FB8   d1fc 0000 6026                   ADDA      #0x00006026,A0
00001FBE   0c10 0024                        CMP.B     #0x24,(A0)
00001FC2   6602                             BNE       B_1fc6
00001FC4   5247                             ADDQ.W    #1,D7
00001FC6   33c4 0000 5d80                   MOVE.W    D4,A_00005d80
00001FCC   be7c 0080                        CMP.W     #0x0080,D7
00001FD0   6506                             BCS       B_1fd8
00001FD2   4247                             CLR.W     D7
00001FD4   6100 fe9a                        BSR       B_11e70
00001FD8   3007                             MOVE.W    D7,D0
00001FDA   4a9f                             TST       (A7)+
00001FDC   4cdf 30f8                        MOVEM     (A7)+,REGS D3-7A45
00001FE0   4e5e                             UNLK      a6
00001FE2   4e75                             RTS
00001FE4   4e56 0000                        LINK      A6,0x0
00001FE8   48e7 0704                        MOVEM     REGS D5-7A5,-(A7)
00001FEC   3e2e 0008                        MOVE.W    (D_0008,A6),D7
00001FF0   2a6e 000a                        MOVE      (D_000a,A6),A5
00001FF4   4246                             CLR.W     D6
00001FF6   6100 e6ae                        BSR       B_106a6
00001FFA   603e                             BRA       B_203a
00001FFC   3047                             MOVE.W    D7,A0
00001FFE   d1fc 0000 6026                   ADDA      #0x00006026,A0
00002004   0c10 0024                        CMP.B     #0x24,(A0)
00002008   6612                             BNE       B_201c
0000200A   5247                             ADDQ.W    #1,D7
0000200C   2e8d                             MOVE      A5,(A7)
0000200E   4267                             CLR.W     -(A7)
00002010   3f07                             MOVE.W    D7,-(A7)
00002012   6100 fe8a                        BSR       B_11e9e
00002016   588f                             ADDQ      #4,A7
00002018   3e00                             MOVE.W    D0,D7
0000201A   601e                             BRA       B_203a
0000201C   207c 0000 6026                   MOVE      #0x00006026,A0
00002022   1030 7000                        MOVE.B    (D_00,A0,D7.W),D0
00002026   4880                             EXT.W     D0
00002028   48c0                             EXT.L     D0
0000202A   2e80                             MOVE      D0,(A7)
0000202C   3f3c 0002                        MOVE.W    #0x0002,-(A7)
00002030   4eb9 0000 04ca                   JSR       A_000004ca
00002036   548f                             ADDQ      #2,A7
00002038   5247                             ADDQ.W    #1,D7
0000203A   be7c 0080                        CMP.W     #0x0080,D7
0000203E   641c                             BCC       B_205c
00002040   3047                             MOVE.W    D7,A0
00002042   d1fc 0000 6026                   ADDA      #0x00006026,A0
00002048   0c10 001a                        CMP.B     #0x1a,(A0)
0000204C   670e                             BEQ       B_205c
0000204E   3047                             MOVE.W    D7,A0
00002050   d1fc 0000 6026                   ADDA      #0x00006026,A0
00002056   0c10 000d                        CMP.B     #0xd,(A0)
0000205A   66a0                             BNE       B_1ffc
0000205C   be7c 0080                        CMP.W     #0x0080,D7
00002060   662c                             BNE       B_208e
00002062   3047                             MOVE.W    D7,A0
00002064   d1fc 0000 6026                   ADDA      #0x00006026,A0
0000206A   0c10 001a                        CMP.B     #0x1a,(A0)
0000206E   671e                             BEQ       B_208e
00002070   3047                             MOVE.W    D7,A0
00002072   d1fc 0000 6026                   ADDA      #0x00006026,A0
00002078   0c10 000d                        CMP.B     #0xd,(A0)
0000207C   6710                             BEQ       B_208e
0000207E   4247                             CLR.W     D7
00002080   6100 fdee                        BSR       B_11e70
00002084   4a40                             TST.W     D0
00002086   6604                             BNE       B_208c
00002088   3c3c 0001                        MOVE.W    #0x0001,D6
0000208C   602a                             BRA       B_20b8
0000208E   3047                             MOVE.W    D7,A0
00002090   d1fc 0000 6026                   ADDA      #0x00006026,A0
00002096   0c10 000d                        CMP.B     #0xd,(A0)
0000209A   6610                             BNE       B_20ac
0000209C   5447                             ADDQ.W    #2,D7
0000209E   be7c 0080                        CMP.W     #0x0080,D7
000020A2   6506                             BCS       B_20aa
000020A4   4247                             CLR.W     D7
000020A6   6100 fdc8                        BSR       B_11e70
000020AA   6008                             BRA       B_20b4
000020AC   13fc 0001 0000 60c2              MOVE.B    #0x0001,A_000060c2
000020B4   3c3c 0001                        MOVE.W    #0x0001,D6
000020B8   3006                             MOVE.W    D6,D0
000020BA   6700 ff3e                        BEQ.L     B_11ffa
000020BE   3007                             MOVE.W    D7,D0
000020C0   4a9f                             TST       (A7)+
000020C2   4cdf 20c0                        MOVEM     (A7)+,REGS D67A5
000020C6   4e5e                             UNLK      a6
000020C8   4e75                             RTS
000020CA   4e56 0000                        LINK      A6,0x0
000020CE   48e7 1f0c                        MOVEM     REGS D3-7A45,-(A7)
000020D2   2a6e 0008                        MOVE      (D_0008,A6),A5
000020D6   4247                             CLR.W     D7
000020D8   3a39 0000 5d80                   MOVE.W    A_00005d80,D5
000020DE   6000 00f0                        BRA.L     B_21d0
000020E2   207c 0000 6026                   MOVE      #0x00006026,A0
000020E8   1030 5000                        MOVE.B    (D_00,A0,D5.W),D0
000020EC   4880                             EXT.W     D0
000020EE   6000 00c8                        BRA.L     B_21b8
000020F2   2e8d                             MOVE      A5,(A7)
000020F4   3f05                             MOVE.W    D5,-(A7)
000020F6   6100 feec                        BSR       B_11fe4
000020FA   548f                             ADDQ      #2,A7
000020FC   3a00                             MOVE.W    D0,D5
000020FE   6000 00d0                        BRA.L     B_21d0
00002102   3007                             MOVE.W    D7,D0
00002104   6316                             BLS       B_211c
00002106   3047                             MOVE.W    D7,A0
00002108   d1fc 0000 60c4                   ADDA      #0x000060c4,A0
0000210E   3245                             MOVE.W    D5,A1
00002110   d3fc 0000 6026                   ADDA      #0x00006026,A1
00002116   1091                             MOVE.B    (A1),(A0)
00002118   5245                             ADDQ.W    #1,D5
0000211A   5247                             ADDQ.W    #1,D7
0000211C   6002                             BRA       B_2120
0000211E   5245                             ADDQ.W    #1,D5
00002120   ba7c 0080                        CMP.W     #0x0080,D5
00002124   641c                             BCC       B_2142
00002126   3045                             MOVE.W    D5,A0
00002128   d1fc 0000 6026                   ADDA      #0x00006026,A0
0000212E   0c10 0020                        CMP.B     #0x20,(A0)
00002132   67ea                             BEQ       B_211e
00002134   3045                             MOVE.W    D5,A0
00002136   d1fc 0000 6026                   ADDA      #0x00006026,A0
0000213C   0c10 0009                        CMP.B     #0x9,(A0)
00002140   67dc                             BEQ       B_211e
00002142   ba7c 0080                        CMP.W     #0x0080,D5
00002146   650e                             BCS       B_2156
00002148   4245                             CLR.W     D5
0000214A   6100 fd24                        BSR       B_11e70
0000214E   4a40                             TST.W     D0
00002150   6602                             BNE       B_2154
00002152   6002                             BRA       B_2156
00002154   60c6                             BRA       B_211c
00002156   6000 0078                        BRA.L     B_21d0
0000215A   5245                             ADDQ.W    #1,D5
0000215C   33c7 0000 5d80                   MOVE.W    D7,A_00005d80
00002162   2e8d                             MOVE      A5,(A7)
00002164   3f3c 0001                        MOVE.W    #0x0001,-(A7)
00002168   3f05                             MOVE.W    D5,-(A7)
0000216A   6100 fd32                        BSR       B_11e9e
0000216E   588f                             ADDQ      #4,A7
00002170   3a00                             MOVE.W    D0,D5
00002172   3e39 0000 5d80                   MOVE.W    A_00005d80,D7
00002178   6056                             BRA       B_21d0
0000217A   5245                             ADDQ.W    #1,D5
0000217C   ba7c 0080                        CMP.W     #0x0080,D5
00002180   6506                             BCS       B_2188
00002182   4245                             CLR.W     D5
00002184   6100 fcea                        BSR       B_11e70
00002188   6046                             BRA       B_21d0
0000218A   13fc 0001 0000 60c2              MOVE.B    #0x0001,A_000060c2
00002192   603c                             BRA       B_21d0
00002194   3047                             MOVE.W    D7,A0
00002196   d1fc 0000 60c4                   ADDA      #0x000060c4,A0
0000219C   3245                             MOVE.W    D5,A1
0000219E   d3fc 0000 6026                   ADDA      #0x00006026,A1
000021A4   1091                             MOVE.B    (A1),(A0)
000021A6   5245                             ADDQ.W    #1,D5
000021A8   5247                             ADDQ.W    #1,D7
000021AA   ba7c 0080                        CMP.W     #0x0080,D5
000021AE   6506                             BCS       B_21b6
000021B0   4245                             CLR.W     D5
000021B2   6100 fcbc                        BSR       B_11e70
000021B6   6018                             BRA       B_21d0
000021B8   48c0                             EXT.L     D0
000021BA   207c 0000 51e8                   MOVE      #0x000051e8,A0
000021C0   323c 0006                        MOVE.W    #0x0006,D1
000021C4   b098                             CMP       (A0)+,D0
000021C6   57c9 fffc                        DBEQ      D1,B_121c4
000021CA   2068 0018                        MOVE      (D_0018,A0),A0
000021CE   4ed0                             JMP       (A0)
000021D0   1039 0000 60c2                   MOVE.B    A_000060c2,D0
000021D6   6624                             BNE       B_21fc
000021D8   be7c 0080                        CMP.W     #0x0080,D7
000021DC   641e                             BCC       B_21fc
000021DE   3045                             MOVE.W    D5,A0
000021E0   d1fc 0000 6026                   ADDA      #0x00006026,A0
000021E6   0c10 000d                        CMP.B     #0xd,(A0)
000021EA   6710                             BEQ       B_21fc
000021EC   3045                             MOVE.W    D5,A0
000021EE   d1fc 0000 6026                   ADDA      #0x00006026,A0
000021F4   0c10 0021                        CMP.B     #0x21,(A0)
000021F8   6600 fee8                        BNE.L     B_120e2
000021FC   3045                             MOVE.W    D5,A0
000021FE   d1fc 0000 6026                   ADDA      #0x00006026,A0
00002204   0c10 000d                        CMP.B     #0xd,(A0)
00002208   670e                             BEQ       B_2218
0000220A   3045                             MOVE.W    D5,A0
0000220C   d1fc 0000 6026                   ADDA      #0x00006026,A0
00002212   0c10 0021                        CMP.B     #0x21,(A0)
00002216   6660                             BNE       B_2278
00002218   6002                             BRA       B_221c
0000221A   5245                             ADDQ.W    #1,D5
0000221C   ba7c 0080                        CMP.W     #0x0080,D5
00002220   642a                             BCC       B_224c
00002222   3045                             MOVE.W    D5,A0
00002224   d1fc 0000 6026                   ADDA      #0x00006026,A0
0000222A   0c10 000d                        CMP.B     #0xd,(A0)
0000222E   67ea                             BEQ       B_221a
00002230   3045                             MOVE.W    D5,A0
00002232   d1fc 0000 6026                   ADDA      #0x00006026,A0
00002238   0c10 000a                        CMP.B     #0xa,(A0)
0000223C   67dc                             BEQ       B_221a
0000223E   3045                             MOVE.W    D5,A0
00002240   d1fc 0000 6026                   ADDA      #0x00006026,A0
00002246   0c10 0021                        CMP.B     #0x21,(A0)
0000224A   67ce                             BEQ       B_221a
0000224C   ba7c 0080                        CMP.W     #0x0080,D5
00002250   660c                             BNE       B_225e
00002252   4245                             CLR.W     D5
00002254   6100 fc1a                        BSR       B_11e70
00002258   4a40                             TST.W     D0
0000225A   671c                             BEQ       B_2278
0000225C   6018                             BRA       B_2276
0000225E   3045                             MOVE.W    D5,A0
00002260   d1fc 0000 6026                   ADDA      #0x00006026,A0
00002266   0c10 001a                        CMP.B     #0x1a,(A0)
0000226A   6608                             BNE       B_2274
0000226C   13fc 0001 0000 60c2              MOVE.B    #0x0001,A_000060c2
00002274   6002                             BRA       B_2278
00002276   60a0                             BRA       B_2218
00002278   33c5 0000 5d80                   MOVE.W    D5,A_00005d80
0000227E   4a9f                             TST       (A7)+
00002280   4cdf 30f0                        MOVEM     (A7)+,REGS D4-7A45
00002284   4e5e                             UNLK      a6
00002286   4e75                             RTS
00002288   4e56 0000                        LINK      A6,0x0
0000228C   48e7 0704                        MOVEM     REGS D5-7A5,-(A7)
00002290   2a6e 0008                        MOVE      (D_0008,A6),A5
00002294   4247                             CLR.W     D7
00002296   600c                             BRA       B_22a4
00002298   3047                             MOVE.W    D7,A0
0000229A   d1fc 0000 60c4                   ADDA      #0x000060c4,A0
000022A0   4210                             CLR.B     (A0)
000022A2   5247                             ADDQ.W    #1,D7
000022A4   be7c 0080                        CMP.W     #0x0080,D7
000022A8   63ee                             BLS       B_2298
000022AA   2ebc 0000 00ff                   MOVE      #0x000000ff,(A7)
000022B0   3f3c 0020                        MOVE.W    #0x0020,-(A7)
000022B4   4eb9 0000 04ca                   JSR       A_000004ca
000022BA   548f                             ADDQ      #2,A7
000022BC   3c00                             MOVE.W    D0,D6
000022BE   4280                             CLR       D0
000022C0   3039 0000 5f7c                   MOVE.W    A_00005f7c,D0
000022C6   2e80                             MOVE      D0,(A7)
000022C8   3f3c 0020                        MOVE.W    #0x0020,-(A7)
000022CC   4eb9 0000 04ca                   JSR       A_000004ca
000022D2   548f                             ADDQ      #2,A7
000022D4   2ebc 0000 6026                   MOVE      #0x00006026,(A7)
000022DA   3f3c 001a                        MOVE.W    #0x001a,-(A7)
000022DE   4eb9 0000 04ca                   JSR       A_000004ca
000022E4   548f                             ADDQ      #2,A7
000022E6   1039 0000 6024                   MOVE.B    A_00006024,D0
000022EC   6608                             BNE       B_22f6
000022EE   1039 0000 614a                   MOVE.B    A_0000614a,D0
000022F4   6720                             BEQ       B_2316
000022F6   4247                             CLR.W     D7
000022F8   600c                             BRA       B_2306
000022FA   3047                             MOVE.W    D7,A0
000022FC   d1fc 0000 6026                   ADDA      #0x00006026,A0
00002302   4210                             CLR.B     (A0)
00002304   5247                             ADDQ.W    #1,D7
00002306   be7c 0080                        CMP.W     #0x0080,D7
0000230A   65ee                             BCS       B_22fa
0000230C   6100 fb62                        BSR       B_11e70
00002310   4279 0000 5d80                   CLR.W     A_00005d80
00002316   1039 0000 60c2                   MOVE.B    A_000060c2,D0
0000231C   6606                             BNE       B_2324
0000231E   2e8d                             MOVE      A5,(A7)
00002320   6100 fda8                        BSR       B_120ca
00002324   4247                             CLR.W     D7
00002326   6046                             BRA       B_236e
00002328   3047                             MOVE.W    D7,A0
0000232A   d1fc 0000 60c4                   ADDA      #0x000060c4,A0
00002330   0c10 0061                        CMP.B     #0x61,(A0)
00002334   6d20                             BLT       B_2356
00002336   3047                             MOVE.W    D7,A0
00002338   d1fc 0000 60c4                   ADDA      #0x000060c4,A0
0000233E   0c10 007a                        CMP.B     #0x7a,(A0)
00002342   6e12                             BGT       B_2356
00002344   207c 0000 60c4                   MOVE      #0x000060c4,A0
0000234A   1030 7000                        MOVE.B    (D_00,A0,D7.W),D0
0000234E   4880                             EXT.W     D0
00002350   d07c ffe0                        ADD.W     #0xffe0,D0
00002354   600c                             BRA       B_2362
00002356   207c 0000 60c4                   MOVE      #0x000060c4,A0
0000235C   1030 7000                        MOVE.B    (D_00,A0,D7.W),D0
00002360   4880                             EXT.W     D0
00002362   3247                             MOVE.W    D7,A1
00002364   d3fc 0000 60c4                   ADDA      #0x000060c4,A1
0000236A   1280                             MOVE.B    D0,(A1)
0000236C   5247                             ADDQ.W    #1,D7
0000236E   be7c 0080                        CMP.W     #0x0080,D7
00002372   65b4                             BCS       B_2328
00002374   2ebc 0000 5ef4                   MOVE      #0x00005ef4,(A7)
0000237A   3f3c 001a                        MOVE.W    #0x001a,-(A7)
0000237E   4eb9 0000 04ca                   JSR       A_000004ca
00002384   548f                             ADDQ      #2,A7
00002386   4280                             CLR       D0
00002388   3006                             MOVE.W    D6,D0
0000238A   2e80                             MOVE      D0,(A7)
0000238C   3f3c 0020                        MOVE.W    #0x0020,-(A7)
00002390   4eb9 0000 04ca                   JSR       A_000004ca
00002396   548f                             ADDQ      #2,A7
00002398   4a9f                             TST       (A7)+
0000239A   4cdf 20c0                        MOVEM     (A7)+,REGS D67A5
0000239E   4e5e                             UNLK      a6
000023A0   4e75                             RTS
000023A2   4e56 0000                        LINK      A6,0x0
000023A6   48e7 0704                        MOVEM     REGS D5-7A5,-(A7)
000023AA   2a6e 0008                        MOVE      (D_0008,A6),A5
000023AE   2e8d                             MOVE      A5,(A7)
000023B0   6100 e40c                        BSR       B_107be
000023B4   6000 0124                        BRA.L     B_24da
000023B8   4257                             CLR.W     (A7)
000023BA   6100 ec6e                        BSR       B_1102a
000023BE   6000 012e                        BRA.L     B_24ee
000023C2   3ebc 0001                        MOVE.W    #0x0001,(A7)
000023C6   6100 ec62                        BSR       B_1102a
000023CA   6000 0122                        BRA.L     B_24ee
000023CE   6100 ee6a                        BSR       B_1123a
000023D2   6000 011a                        BRA.L     B_24ee
000023D6   6100 ef9a                        BSR       B_11372
000023DA   6000 0112                        BRA.L     B_24ee
000023DE   6100 f30a                        BSR       B_116ea
000023E2   6000 010a                        BRA.L     B_24ee
000023E6   6100 f49e                        BSR       B_11886
000023EA   4a40                             TST.W     D0
000023EC   6612                             BNE       B_2400
000023EE   2ebc 0000 5130                   MOVE      #0x00005130,(A7)
000023F4   3f3c 0009                        MOVE.W    #0x0009,-(A7)
000023F8   4eb9 0000 04ca                   JSR       A_000004ca
000023FE   548f                             ADDQ      #2,A7
00002400   6000 00ec                        BRA.L     B_24ee
00002404   1039 0000 5e7c                   MOVE.B    A_00005e7c,D0
0000240A   4880                             EXT.W     D0
0000240C   d07c ffbf                        ADD.W     #0xffbf,D0
00002410   48c0                             EXT.L     D0
00002412   2e80                             MOVE      D0,(A7)
00002414   3f3c 000e                        MOVE.W    #0x000e,-(A7)
00002418   4eb9 0000 04ca                   JSR       A_000004ca
0000241E   548f                             ADDQ      #2,A7
00002420   6000 00cc                        BRA.L     B_24ee
00002424   3c3c 0007                        MOVE.W    #0x0007,D6
00002428   1039 0000 5e9a                   MOVE.B    A_00005e9a,D0
0000242E   6600 007e                        BNE.L     B_24ae
00002432   2ebc 0000 506c                   MOVE      #0x0000506c,(A7)
00002438   3f3c 0009                        MOVE.W    #0x0009,-(A7)
0000243C   4eb9 0000 04ca                   JSR       A_000004ca
00002442   548f                             ADDQ      #2,A7
00002444   2ebc 0000 007f                   MOVE      #0x0000007f,(A7)
0000244A   2f3c 0000 6026                   MOVE      #0x00006026,-(A7)
00002450   6100 e542                        BSR       B_10994
00002454   588f                             ADDQ      #4,A7
00002456   4247                             CLR.W     D7
00002458   6016                             BRA       B_2470
0000245A   3047                             MOVE.W    D7,A0
0000245C   d1fc 0000 5e7c                   ADDA      #0x00005e7c,A0
00002462   3247                             MOVE.W    D7,A1
00002464   d3fc 0000 6026                   ADDA      #0x00006026,A1
0000246A   1151 001e                        MOVE.B    (A1),(D_001e,A0)
0000246E   5247                             ADDQ.W    #1,D7
00002470   3047                             MOVE.W    D7,A0
00002472   d1fc 0000 6026                   ADDA      #0x00006026,A0
00002478   0c10 0020                        CMP.B     #0x20,(A0)
0000247C   6712                             BEQ       B_2490
0000247E   207c 0000 6026                   MOVE      #0x00006026,A0
00002484   1030 7000                        MOVE.B    (D_00,A0,D7.W),D0
00002488   6706                             BEQ       B_2490
0000248A   be7c 001d                        CMP.W     #0x001d,D7
0000248E   65ca                             BCS       B_245a
00002490   3047                             MOVE.W    D7,A0
00002492   d1fc 0000 5e7c                   ADDA      #0x00005e7c,A0
00002498   4228 001e                        CLR.B     (D_001e,A0)
0000249C   3007                             MOVE.W    D7,D0
0000249E   670a                             BEQ       B_24aa
000024A0   13fc 0001 0000 60c0              MOVE.B    #0x0001,A_000060c0
000024A8   6002                             BRA       B_24ac
000024AA   6042                             BRA       B_24ee
000024AC   6006                             BRA       B_24b4
000024AE   4239 0000 60c0                   CLR.B     A_000060c0
000024B4   6004                             BRA       B_24ba
000024B6   3c3c 000a                        MOVE.W    #0x000a,D6
000024BA   3e86                             MOVE.W    D6,(A7)
000024BC   6100 f498                        BSR       B_11956
000024C0   4a40                             TST.W     D0
000024C2   662a                             BNE       B_24ee
000024C4   bc7c 0007                        CMP.W     #0x0007,D6
000024C8   6724                             BEQ       B_24ee
000024CA   4257                             CLR.W     (A7)
000024CC   2f3c 0000 5e7c                   MOVE      #0x00005e7c,-(A7)
000024D2   6100 e27a                        BSR       B_1074e
000024D6   588f                             ADDQ      #4,A7
000024D8   6014                             BRA       B_24ee
000024DA   b07c 0009                        CMP.W     #0x0009,D0
000024DE   62ea                             BHI       B_24ca
000024E0   e540                             ASL.W     #2,D0
000024E2   3040                             MOVE.W    D0,A0
000024E4   d1fc 0000 5220                   ADDA      #0x00005220,A0
000024EA   2050                             MOVE      (A0),A0
000024EC   4ed0                             JMP       (A0)
000024EE   4a9f                             TST       (A7)+
000024F0   4cdf 20c0                        MOVEM     (A7)+,REGS D67A5
000024F4   4e5e                             UNLK      a6
000024F6   4e75                             RTS
000024F8   4e56 0000                        LINK      A6,0x0
000024FC   48e7 0104                        MOVEM     REGS D7A5,-(A7)
00002500   13fc 0001 0000 614e              MOVE.B    #0x0001,A_0000614e
00002508   2ebc 0000 5ef4                   MOVE      #0x00005ef4,(A7)
0000250E   3f3c 001a                        MOVE.W    #0x001a,-(A7)
00002512   4eb9 0000 04ca                   JSR       A_000004ca
00002518   548f                             ADDQ      #2,A7
0000251A   1039 0000 5d84                   MOVE.B    A_00005d84,D0
00002520   6732                             BEQ       B_2554
00002522   4280                             CLR       D0
00002524   3039 0000 5e7a                   MOVE.W    A_00005e7a,D0
0000252A   2e80                             MOVE      D0,(A7)
0000252C   3f3c 000e                        MOVE.W    #0x000e,-(A7)
00002530   4eb9 0000 04ca                   JSR       A_000004ca
00002536   548f                             ADDQ      #2,A7
00002538   4280                             CLR       D0
0000253A   3039 0000 60aa                   MOVE.W    A_000060aa,D0
00002540   2e80                             MOVE      D0,(A7)
00002542   3f3c 0020                        MOVE.W    #0x0020,-(A7)
00002546   4eb9 0000 04ca                   JSR       A_000004ca
0000254C   548f                             ADDQ      #2,A7
0000254E   4239 0000 5d84                   CLR.B     A_00005d84
00002554   2039 0000 5f78                   MOVE      A_00005f78,D0
0000255A   6728                             BEQ       B_2584
0000255C   2a79 0000 5f78                   MOVE      A_00005f78,A5
00002562   528d                             ADDQ      #1,A5
00002564   204d                             MOVE      A5,A0
00002566   2279 0000 5f78                   MOVE      A_00005f78,A1
0000256C   1211                             MOVE.B    (A1),D1
0000256E   4881                             EXT.W     D1
00002570   c27c 00ff                        AND.W     #0x00ff,D1
00002574   48c1                             EXT.L     D1
00002576   d1c1                             ADDA      D1,A0
00002578   4210                             CLR.B     (A0)
0000257A   42b9 0000 5f78                   CLR       A_00005f78
00002580   6000 00ae                        BRA.L     B_2630
00002584   1039 0000 5646                   MOVE.B    A_00005646,D0
0000258A   6760                             BEQ       B_25ec
0000258C   1039 0000 5644                   MOVE.B    A_00005644,D0
00002592   673a                             BEQ       B_25ce
00002594   2a7c 0000 60c4                   MOVE      #0x000060c4,A5
0000259A   2ebc 0000 5f7e                   MOVE      #0x00005f7e,(A7)
000025A0   6100 fce6                        BSR       B_12288
000025A4   6022                             BRA       B_25c8
000025A6   1039 0000 60c2                   MOVE.B    A_000060c2,D0
000025AC   6710                             BEQ       B_25be
000025AE   2a79 0000 60b4                   MOVE      A_000060b4,A5
000025B4   4239 0000 5644                   CLR.B     A_00005644
000025BA   6010                             BRA       B_25cc
000025BC   600a                             BRA       B_25c8
000025BE   2ebc 0000 5f7e                   MOVE      #0x00005f7e,(A7)
000025C4   6100 fcc2                        BSR       B_12288
000025C8   1015                             MOVE.B    (A5),D0
000025CA   67da                             BEQ       B_25a6
000025CC   6006                             BRA       B_25d4
000025CE   2a79 0000 60b4                   MOVE      A_000060b4,A5
000025D4   4239 0000 5646                   CLR.B     A_00005646
000025DA   1015                             MOVE.B    (A5),D0
000025DC   670c                             BEQ       B_25ea
000025DE   3ebc 0001                        MOVE.W    #0x0001,(A7)
000025E2   2f0d                             MOVE      A5,-(A7)
000025E4   6100 e168                        BSR       B_1074e
000025E8   588f                             ADDQ      #4,A7
000025EA   6044                             BRA       B_2630
000025EC   6100 e0b8                        BSR       B_106a6
000025F0   2a7c 0000 55bf                   MOVE      #0x000055bf,A5
000025F6   1039 0000 55be                   MOVE.B    A_000055be,D0
000025FC   6720                             BEQ       B_261e
000025FE   1039 0000 60be                   MOVE.B    A_000060be,D0
00002604   6718                             BEQ       B_261e
00002606   3ebc 0001                        MOVE.W    #0x0001,(A7)
0000260A   2f3c 0000 55bf                   MOVE      #0x000055bf,-(A7)
00002610   6100 e13c                        BSR       B_1074e
00002614   588f                             ADDQ      #4,A7
00002616   4239 0000 60be                   CLR.B     A_000060be
0000261C   6012                             BRA       B_2630
0000261E   2ebc 0000 0080                   MOVE      #0x00000080,(A7)
00002624   2f3c 0000 55bf                   MOVE      #0x000055bf,-(A7)
0000262A   6100 e368                        BSR       B_10994
0000262E   588f                             ADDQ      #4,A7
00002630   6000 00e0                        BRA.L     B_2712
00002634   23cd 0000 6146                   MOVE      A5,A_00006146
0000263A   2e8d                             MOVE      A5,(A7)
0000263C   6100 e476                        BSR       B_10ab4
00002640   1039 0000 5e7c                   MOVE.B    A_00005e7c,D0
00002646   6714                             BEQ       B_265c
00002648   0c39 003b 0000 5e7c              CMP.B     #0x3b,A_00005e7c
00002650   670a                             BEQ       B_265c
00002652   2ebc 0000 5e7c                   MOVE      #0x00005e7c,(A7)
00002658   6100 fd48                        BSR       B_123a2
0000265C   1039 0000 5644                   MOVE.B    A_00005644,D0
00002662   660c                             BNE       B_2670
00002664   2e8d                             MOVE      A5,(A7)
00002666   6100 e410                        BSR       B_10a78
0000266A   2a40                             MOVE      D0,A5
0000266C   6000 0094                        BRA.L     B_2702
00002670   2a7c 0000 60c4                   MOVE      #0x000060c4,A5
00002676   1039 0000 6024                   MOVE.B    A_00006024,D0
0000267C   6608                             BNE       B_2686
0000267E   1039 0000 614a                   MOVE.B    A_0000614a,D0
00002684   6752                             BEQ       B_26d8
00002686   1039 0000 60c0                   MOVE.B    A_000060c0,D0
0000268C   670c                             BEQ       B_269a
0000268E   2ebc 0000 6026                   MOVE      #0x00006026,(A7)
00002694   6100 dfc4                        BSR       B_1065a
00002698   600a                             BRA       B_26a4
0000269A   2eb9 0000 6146                   MOVE      A_00006146,(A7)
000026A0   6100 dfb8                        BSR       B_1065a
000026A4   1039 0000 6024                   MOVE.B    A_00006024,D0
000026AA   6710                             BEQ       B_26bc
000026AC   2eb9 0000 6146                   MOVE      A_00006146,(A7)
000026B2   6100 e3c4                        BSR       B_10a78
000026B6   23c0 0000 60b4                   MOVE      D0,A_000060b4
000026BC   2ebc 0000 5f7e                   MOVE      #0x00005f7e,(A7)
000026C2   6100 fbc4                        BSR       B_12288
000026C6   4240                             CLR.W     D0
000026C8   13c0 0000 614a                   MOVE.B    D0,A_0000614a
000026CE   4880                             EXT.W     D0
000026D0   13c0 0000 6024                   MOVE.B    D0,A_00006024
000026D6   6002                             BRA       B_26da
000026D8   4215                             CLR.B     (A5)
000026DA   6022                             BRA       B_26fe
000026DC   1039 0000 60c2                   MOVE.B    A_000060c2,D0
000026E2   6710                             BEQ       B_26f4
000026E4   2a79 0000 60b4                   MOVE      A_000060b4,A5
000026EA   4239 0000 5644                   CLR.B     A_00005644
000026F0   6010                             BRA       B_2702
000026F2   600a                             BRA       B_26fe
000026F4   2ebc 0000 5f7e                   MOVE      #0x00005f7e,(A7)
000026FA   6100 fb8c                        BSR       B_12288
000026FE   1015                             MOVE.B    (A5),D0
00002700   67da                             BEQ       B_26dc
00002702   1015                             MOVE.B    (A5),D0
00002704   670c                             BEQ       B_2712
00002706   3ebc 0001                        MOVE.W    #0x0001,(A7)
0000270A   2f0d                             MOVE      A5,-(A7)
0000270C   6100 e040                        BSR       B_1074e
00002710   588f                             ADDQ      #4,A7
00002712   1015                             MOVE.B    (A5),D0
00002714   6600 ff1e                        BNE.L     B_12634
00002718   4a9f                             TST       (A7)+
0000271A   4cdf 2000                        MOVEM     (A7)+,REGS A5
0000271E   4e5e                             UNLK      a6
00002720   4e75                             RTS
00002722   0c40 003e                        CMP.W     #0x3e,D0
00002726   672c                             BEQ       B_2754
00002728   48e7 7ffe                        MOVEM     REGS D1-7A0-6,-(A7)
0000272C   0c40 0032                        CMP.W     #0x32,D0
00002730   6716                             BEQ       B_2748
00002732   2f01                             MOVE      D1,-(A7)
00002734   3f01                             MOVE.W    D1,-(A7)
00002736   3f00                             MOVE.W    D0,-(A7)
00002738   4eb9 0000 4306                   JSR       A_00004306
0000273E   48c0                             EXT.L     D0
00002740   504f                             ADDQ.W    #8,A7
00002742   4cdf 7ffe                        MOVEM     (A7)+,REGS D1-7A0-6
00002746   4e73                             RTE
00002748   2041                             MOVE      D1,A0
0000274A   3018                             MOVE.W    (A0)+,D0
0000274C   4cd8 0006                        MOVEM     (A0)+,REGS D12
00002750   4e43                             TRAP      #3
00002752   60ee                             BRA       B_2742
00002754   0057 2000                        OR.W      #0x2000,(A7)
00002758   4e73                             RTE
0000275A   242f 0008                        MOVE      (D_0008,A7),D2
0000275E   600c                             BRA       B_276c
00002760   342f 0008                        MOVE.W    (D_0008,A7),D2
00002764   6006                             BRA       B_276c
00002766   222f 0006                        MOVE      (D_0006,A7),D1
0000276A   6004                             BRA       B_2770
0000276C   322f 0006                        MOVE.W    (D_0006,A7),D1
00002770   302f 0004                        MOVE.W    (D_0004,A7),D0
00002774   48e7 1f1e                        MOVEM     REGS D3-7A3-6,-(A7)
00002778   4e43                             TRAP      #3
0000277A   4cdf 78f8                        MOVEM     (A7)+,REGS D3-7A3-6
0000277E   4e75                             RTS
00002780   102f 0005                        MOVE.B    (D_0005,A7),D0
00002784   e148                             LSL.W     #8,D0
00002786   102f 0004                        MOVE.B    (D_0004,A7),D0
0000278A   4e75                             RTS
0000278C   202f 0004                        MOVE      (D_0004,A7),D0
00002790   80ef 0008                        DIVU      (D_0008,A7),D0
00002794   206f 000a                        MOVE      (D_000a,A7),A0
00002798   4840                             SWAP      d0
0000279A   3080                             MOVE.W    D0,(A0)
0000279C   4240                             CLR.W     D0
0000279E   4840                             SWAP      d0
000027A0   4e75                             RTS
000027A2   4e56 fffc                        LINK      A6,0xfffc
000027A6   1039 0000 5d86                   MOVE.B    A_00005d86,D0
000027AC   6706                             BEQ       B_27b4
000027AE   303c 0001                        MOVE.W    #0x0001,D0
000027B2   600a                             BRA       B_27be
000027B4   3ebc 0002                        MOVE.W    #0x0002,(A7)
000027B8   4eb9 0000 2770                   JSR       A_00002770
000027BE   4e5e                             UNLK      a6
000027C0   4e75                             RTS
000027C2   4e56 0000                        LINK      A6,0x0
000027C6   48e7 0700                        MOVEM     REGS D5-7,-(A7)
000027CA   4206                             CLR.B     D6
000027CC   3ebc 0002                        MOVE.W    #0x0002,(A7)
000027D0   4eb9 0000 2770                   JSR       A_00002770
000027D6   4a40                             TST.W     D0
000027D8   6700 0074                        BEQ.L     B_284e
000027DC   3ebc 0003                        MOVE.W    #0x0003,(A7)
000027E0   4eb9 0000 2770                   JSR       A_00002770
000027E6   1e00                             MOVE.B    D0,D7
000027E8   b07c 0003                        CMP.W     #0x0003,D0
000027EC   660a                             BNE       B_27f8
000027EE   3ebc 0002                        MOVE.W    #0x0002,(A7)
000027F2   4eb9 0000 2d8a                   JSR       A_00002d8a
000027F8   be3c 0013                        CMP.B     #0x0013,D7
000027FC   6606                             BNE       B_2804
000027FE   1c3c 0001                        MOVE.B    #0x0001,D6
00002802   6046                             BRA       B_284a
00002804   be3c 0011                        CMP.B     #0x0011,D7
00002808   6604                             BNE       B_280e
0000280A   4206                             CLR.B     D6
0000280C   603c                             BRA       B_284a
0000280E   be3c 0010                        CMP.B     #0x0010,D7
00002812   6618                             BNE       B_282c
00002814   1039 0000 5d88                   MOVE.B    A_00005d88,D0
0000281A   6704                             BEQ       B_2820
0000281C   4240                             CLR.W     D0
0000281E   6004                             BRA       B_2824
00002820   303c 0001                        MOVE.W    #0x0001,D0
00002824   13c0 0000 5d88                   MOVE.B    D0,A_00005d88
0000282A   601e                             BRA       B_284a
0000282C   0c39 007e 0000 5d86              CMP.B     #0x7e,A_00005d86
00002834   6c14                             BGE       B_284a
00002836   2079 0000 5dee                   MOVE      A_00005dee,A0
0000283C   1087                             MOVE.B    D7,(A0)
0000283E   52b9 0000 5dee                   ADDQ      #1,A_00005dee
00002844   5239 0000 5d86                   ADDQ.B    #1,A_00005d86
0000284A   1006                             MOVE.B    D6,D0
0000284C   668e                             BNE       B_27dc
0000284E   4a9f                             TST       (A7)+
00002850   4cdf 00c0                        MOVEM     (A7)+,REGS D67
00002854   4e5e                             UNLK      a6
00002856   4e75                             RTS
00002858   4e56 0000                        LINK      A6,0x0
0000285C   48e7 0300                        MOVEM     REGS D67,-(A7)
00002860   1e2e 0009                        MOVE.B    (D_0009,A6),D7
00002864   6100 ff5c                        BSR       B_127c2
00002868   1007                             MOVE.B    D7,D0
0000286A   4880                             EXT.W     D0
0000286C   3e80                             MOVE.W    D0,(A7)
0000286E   3f3c 0004                        MOVE.W    #0x0004,-(A7)
00002872   4eb9 0000 276c                   JSR       A_0000276c
00002878   548f                             ADDQ      #2,A7
0000287A   1039 0000 5d88                   MOVE.B    A_00005d88,D0
00002880   6712                             BEQ       B_2894
00002882   1007                             MOVE.B    D7,D0
00002884   4880                             EXT.W     D0
00002886   3e80                             MOVE.W    D0,(A7)
00002888   3f3c 0005                        MOVE.W    #0x0005,-(A7)
0000288C   4eb9 0000 276c                   JSR       A_0000276c
00002892   548f                             ADDQ      #2,A7
00002894   be3c 0020                        CMP.B     #0x0020,D7
00002898   6508                             BCS       B_28a2
0000289A   5279 0000 5d8a                   ADDQ.W    #1,A_00005d8a
000028A0   601a                             BRA       B_28bc
000028A2   be3c 000d                        CMP.B     #0x000d,D7
000028A6   6608                             BNE       B_28b0
000028A8   4279 0000 5d8a                   CLR.W     A_00005d8a
000028AE   600c                             BRA       B_28bc
000028B0   be3c 0008                        CMP.B     #0x0008,D7
000028B4   6606                             BNE       B_28bc
000028B6   5379 0000 5d8a                   SUBQ.W    #1,A_00005d8a
000028BC   4a9f                             TST       (A7)+
000028BE   4cdf 0080                        MOVEM     (A7)+,REGS D7
000028C2   4e5e                             UNLK      a6
000028C4   4e75                             RTS
000028C6   4e56 0000                        LINK      A6,0x0
000028CA   48e7 0300                        MOVEM     REGS D67,-(A7)
000028CE   1e2e 0009                        MOVE.B    (D_0009,A6),D7
000028D2   be3c 0009                        CMP.B     #0x0009,D7
000028D6   6616                             BNE       B_28ee
000028D8   3ebc 0020                        MOVE.W    #0x0020,(A7)
000028DC   6100 ff7a                        BSR       B_12858
000028E0   3039 0000 5d8a                   MOVE.W    A_00005d8a,D0
000028E6   c07c 0007                        AND.W     #0x0007,D0
000028EA   66ec                             BNE       B_28d8
000028EC   600a                             BRA       B_28f8
000028EE   1007                             MOVE.B    D7,D0
000028F0   4880                             EXT.W     D0
000028F2   3e80                             MOVE.W    D0,(A7)
000028F4   6100 ff62                        BSR       B_12858
000028F8   4a9f                             TST       (A7)+
000028FA   4cdf 0080                        MOVEM     (A7)+,REGS D7
000028FE   4e5e                             UNLK      a6
00002900   4e75                             RTS
00002902   4e56 0000                        LINK      A6,0x0
00002906   48e7 0300                        MOVEM     REGS D67,-(A7)
0000290A   1e2e 0009                        MOVE.B    (D_0009,A6),D7
0000290E   be3c 0009                        CMP.B     #0x0009,D7
00002912   660a                             BNE       B_291e
00002914   1007                             MOVE.B    D7,D0
00002916   4880                             EXT.W     D0
00002918   3e80                             MOVE.W    D0,(A7)
0000291A   61aa                             BSR.S     B_28c6
0000291C   601c                             BRA       B_293a
0000291E   be3c 0020                        CMP.B     #0x0020,D7
00002922   640c                             BCC       B_2930
00002924   3ebc 005e                        MOVE.W    #0x005e,(A7)
00002928   6100 ff2e                        BSR       B_12858
0000292C   8e3c 0040                        OR.B      #0x0040,D7
00002930   1007                             MOVE.B    D7,D0
00002932   4880                             EXT.W     D0
00002934   3e80                             MOVE.W    D0,(A7)
00002936   6100 ff20                        BSR       B_12858
0000293A   4a9f                             TST       (A7)+
0000293C   4cdf 0080                        MOVEM     (A7)+,REGS D7
00002940   4e5e                             UNLK      a6
00002942   4e75                             RTS
00002944   4e56 0000                        LINK      A6,0x0
00002948   48e7 0300                        MOVEM     REGS D67,-(A7)
0000294C   1039 0000 5d86                   MOVE.B    A_00005d86,D0
00002952   6734                             BEQ       B_2988
00002954   2079 0000 5df2                   MOVE      A_00005df2,A0
0000295A   1e10                             MOVE.B    (A0),D7
0000295C   52b9 0000 5df2                   ADDQ      #1,A_00005df2
00002962   5339 0000 5d86                   SUBQ.B    #1,A_00005d86
00002968   1039 0000 5d86                   MOVE.B    A_00005d86,D0
0000296E   6612                             BNE       B_2982
00002970   203c 0000 5df6                   MOVE      #0x00005df6,D0
00002976   23c0 0000 5dee                   MOVE      D0,A_00005dee
0000297C   23c0 0000 5df2                   MOVE      D0,A_00005df2
00002982   1007                             MOVE.B    D7,D0
00002984   4880                             EXT.W     D0
00002986   600a                             BRA       B_2992
00002988   3ebc 0003                        MOVE.W    #0x0003,(A7)
0000298C   4eb9 0000 2770                   JSR       A_00002770
00002992   4a9f                             TST       (A7)+
00002994   4cdf 0080                        MOVEM     (A7)+,REGS D7
00002998   4e5e                             UNLK      a6
0000299A   4e75                             RTS
0000299C   4e56 0000                        LINK      A6,0x0
000029A0   48e7 0300                        MOVEM     REGS D67,-(A7)
000029A4   619e                             BSR.S     B_2944
000029A6   1e00                             MOVE.B    D0,D7
000029A8   3e80                             MOVE.W    D0,(A7)
000029AA   6100 feac                        BSR       B_12858
000029AE   be3c 0010                        CMP.B     #0x0010,D7
000029B2   6616                             BNE       B_29ca
000029B4   1039 0000 5d88                   MOVE.B    A_00005d88,D0
000029BA   6704                             BEQ       B_29c0
000029BC   4240                             CLR.W     D0
000029BE   6004                             BRA       B_29c4
000029C0   303c 0001                        MOVE.W    #0x0001,D0
000029C4   13c0 0000 5d88                   MOVE.B    D0,A_00005d88
000029CA   1007                             MOVE.B    D7,D0
000029CC   4880                             EXT.W     D0
000029CE   4a9f                             TST       (A7)+
000029D0   4cdf 0080                        MOVEM     (A7)+,REGS D7
000029D4   4e5e                             UNLK      a6
000029D6   4e75                             RTS
000029D8   4e56 0000                        LINK      A6,0x0
000029DC   48e7 0300                        MOVEM     REGS D67,-(A7)
000029E0   3e2e 0008                        MOVE.W    (D_0008,A6),D7
000029E4   be7c 00ff                        CMP.W     #0x00ff,D7
000029E8   6608                             BNE       B_29f2
000029EA   6100 ff58                        BSR       B_12944
000029EE   6022                             BRA       B_2a12
000029F0   6020                             BRA       B_2a12
000029F2   be7c 00fe                        CMP.W     #0x00fe,D7
000029F6   6608                             BNE       B_2a00
000029F8   6100 fda8                        BSR       B_127a2
000029FC   6014                             BRA       B_2a12
000029FE   6012                             BRA       B_2a12
00002A00   3e87                             MOVE.W    D7,(A7)
00002A02   0257 00ff                        AND.W     #0xff,(A7)
00002A06   3f3c 0004                        MOVE.W    #0x0004,-(A7)
00002A0A   4eb9 0000 276c                   JSR       A_0000276c
00002A10   548f                             ADDQ      #2,A7
00002A12   4a9f                             TST       (A7)+
00002A14   4cdf 0080                        MOVEM     (A7)+,REGS D7
00002A18   4e5e                             UNLK      a6
00002A1A   4e75                             RTS
00002A1C   4e56 0000                        LINK      A6,0x0
00002A20   48e7 0104                        MOVEM     REGS D7A5,-(A7)
00002A24   2a6e 0008                        MOVE      (D_0008,A6),A5
00002A28   600a                             BRA       B_2a34
00002A2A   101d                             MOVE.B    (A5)+,D0
00002A2C   4880                             EXT.W     D0
00002A2E   3e80                             MOVE.W    D0,(A7)
00002A30   6100 fe94                        BSR       B_128c6
00002A34   1015                             MOVE.B    (A5),D0
00002A36   4880                             EXT.W     D0
00002A38   b039 0000 5d87                   CMP.B     A_00005d87,D0
00002A3E   66ea                             BNE       B_2a2a
00002A40   4a9f                             TST       (A7)+
00002A42   4cdf 2000                        MOVEM     (A7)+,REGS A5
00002A46   4e5e                             UNLK      a6
00002A48   4e75                             RTS
00002A4A   4e56 0000                        LINK      A6,0x0
00002A4E   48e7 0300                        MOVEM     REGS D67,-(A7)
00002A52   3e2e 0008                        MOVE.W    (D_0008,A6),D7
00002A56   3ebc 000d                        MOVE.W    #0x000d,(A7)
00002A5A   6100 fdfc                        BSR       B_12858
00002A5E   3ebc 000a                        MOVE.W    #0x000a,(A7)
00002A62   6100 fdf4                        BSR       B_12858
00002A66   600a                             BRA       B_2a72
00002A68   3ebc 0020                        MOVE.W    #0x0020,(A7)
00002A6C   6100 fdea                        BSR       B_12858
00002A70   5347                             SUBQ.W    #1,D7
00002A72   3007                             MOVE.W    D7,D0
00002A74   66f2                             BNE       B_2a68
00002A76   4a9f                             TST       (A7)+
00002A78   4cdf 0080                        MOVEM     (A7)+,REGS D7
00002A7C   4e5e                             UNLK      a6
00002A7E   4e75                             RTS
00002A80   4e56 fffe                        LINK      A6,0xfffe
00002A84   48e7 3f0c                        MOVEM     REGS D2-7A45,-(A7)
00002A88   2a6e 0008                        MOVE      (D_0008,A6),A5
00002A8C   3e2e 000c                        MOVE.W    (D_000c,A6),D7
00002A90   102d 0001                        MOVE.B    (D_0001,A5),D0
00002A94   6704                             BEQ       B_2a9a
00002A96   532d 0001                        SUBQ.B    #1,(D_0001,A5)
00002A9A   4240                             CLR.W     D0
00002A9C   102d 0001                        MOVE.B    (D_0001,A5),D0
00002AA0   3a00                             MOVE.W    D0,D5
00002AA2   ca7c 00ff                        AND.W     #0x00ff,D5
00002AA6   49ed 0002                        LEA       (D_0002,A5),A4
00002AAA   3007                             MOVE.W    D7,D0
00002AAC   3d40 fffe                        MOVE.W    D0,(D_fffe,A6)
00002AB0   3600                             MOVE.W    D0,D3
00002AB2   3805                             MOVE.W    D5,D4
00002AB4   5244                             ADDQ.W    #1,D4
00002AB6   3005                             MOVE.W    D5,D0
00002AB8   672e                             BEQ       B_2ae8
00002ABA   6024                             BRA       B_2ae0
00002ABC   1c1c                             MOVE.B    (A4)+,D6
00002ABE   bc3c 0009                        CMP.B     #0x0009,D6
00002AC2   6608                             BNE       B_2acc
00002AC4   5047                             ADDQ.W    #8,D7
00002AC6   ce7c fff8                        AND.W     #0xfff8,D7
00002ACA   600c                             BRA       B_2ad8
00002ACC   bc3c 0020                        CMP.B     #0x0020,D6
00002AD0   6404                             BCC       B_2ad6
00002AD2   5447                             ADDQ.W    #2,D7
00002AD4   6002                             BRA       B_2ad8
00002AD6   5247                             ADDQ.W    #1,D7
00002AD8   b87c 0001                        CMP.W     #0x0001,D4
00002ADC   6602                             BNE       B_2ae0
00002ADE   3607                             MOVE.W    D7,D3
00002AE0   3004                             MOVE.W    D4,D0
00002AE2   5344                             SUBQ.W    #1,D4
00002AE4   4a40                             TST.W     D0
00002AE6   66d4                             BNE       B_2abc
00002AE8   9e43                             SUB.W     D3,D7
00002AEA   3007                             MOVE.W    D7,D0
00002AEC   6618                             BNE       B_2b06
00002AEE   b679 0000 5d8a                   CMP.W     A_00005d8a,D3
00002AF4   6710                             BEQ       B_2b06
00002AF6   5247                             ADDQ.W    #1,D7
00002AF8   5243                             ADDQ.W    #1,D3
00002AFA   3003                             MOVE.W    D3,D0
00002AFC   b079 0000 5d8a                   CMP.W     A_00005d8a,D0
00002B02   6702                             BEQ       B_2b06
00002B04   5247                             ADDQ.W    #1,D7
00002B06   3039 0000 5d8a                   MOVE.W    A_00005d8a,D0
00002B0C   b06e fffe                        CMP.W     (D_fffe,A6),D0
00002B10   6604                             BNE       B_2b16
00002B12   ce7c 0000                        AND.W     #0x0000,D7
00002B16   6018                             BRA       B_2b30
00002B18   3ebc 0008                        MOVE.W    #0x0008,(A7)
00002B1C   6100 fd3a                        BSR       B_12858
00002B20   3ebc 0020                        MOVE.W    #0x0020,(A7)
00002B24   6100 fd32                        BSR       B_12858
00002B28   3ebc 0008                        MOVE.W    #0x0008,(A7)
00002B2C   6100 fd2a                        BSR       B_12858
00002B30   3007                             MOVE.W    D7,D0
00002B32   5347                             SUBQ.W    #1,D7
00002B34   4a40                             TST.W     D0
00002B36   66e0                             BNE       B_2b18
00002B38   4a9f                             TST       (A7)+
00002B3A   4cdf 30f8                        MOVEM     (A7)+,REGS D3-7A45
00002B3E   4e5e                             UNLK      a6
00002B40   4e75                             RTS
00002B42   4e56 fffe                        LINK      A6,0xfffe
00002B46   48e7 0f0c                        MOVEM     REGS D4-7A45,-(A7)
00002B4A   2a6e 0008                        MOVE      (D_0008,A6),A5
00002B4E   3d79 0000 5d8a fffe              MOVE.W    A_00005d8a,(D_fffe,A6)
00002B56   422d 0001                        CLR.B     (D_0001,A5)
00002B5A   6000 0168                        BRA.L     B_2cc4
00002B5E   6100 fde4                        BSR       B_12944
00002B62   1e00                             MOVE.B    D0,D7
00002B64   b07c 0003                        CMP.W     #0x0003,D0
00002B68   661c                             BNE       B_2b86
00002B6A   102d 0001                        MOVE.B    (D_0001,A5),D0
00002B6E   6616                             BNE       B_2b86
00002B70   3ebc 0003                        MOVE.W    #0x0003,(A7)
00002B74   6100 fd8c                        BSR       B_12902
00002B78   3ebc 0002                        MOVE.W    #0x0002,(A7)
00002B7C   4eb9 0000 2d8a                   JSR       A_00002d8a
00002B82   6000 0140                        BRA.L     B_2cc4
00002B86   be3c 000d                        CMP.B     #0x000d,D7
00002B8A   6706                             BEQ       B_2b92
00002B8C   be3c 000a                        CMP.B     #0x000a,D7
00002B90   6610                             BNE       B_2ba2
00002B92   3ebc 000d                        MOVE.W    #0x000d,(A7)
00002B96   6100 fcc0                        BSR       B_12858
00002B9A   6000 0140                        BRA.L     B_2cdc
00002B9E   6000 0124                        BRA.L     B_2cc4
00002BA2   be3c 0008                        CMP.B     #0x0008,D7
00002BA6   6610                             BNE       B_2bb8
00002BA8   3eae fffe                        MOVE.W    (D_fffe,A6),(A7)
00002BAC   2f0d                             MOVE      A5,-(A7)
00002BAE   6100 fed0                        BSR       B_12a80
00002BB2   588f                             ADDQ      #4,A7
00002BB4   6000 010e                        BRA.L     B_2cc4
00002BB8   be3c 007f                        CMP.B     #0x007f,D7
00002BBC   663e                             BNE       B_2bfc
00002BBE   1039 0000 5d89                   MOVE.B    A_00005d89,D0
00002BC4   6726                             BEQ       B_2bec
00002BC6   102d 0001                        MOVE.B    (D_0001,A5),D0
00002BCA   671e                             BEQ       B_2bea
00002BCC   102d 0001                        MOVE.B    (D_0001,A5),D0
00002BD0   4880                             EXT.W     D0
00002BD2   5340                             SUBQ.W    #1,D0
00002BD4   1b40 0001                        MOVE.B    D0,(D_0001,A5)
00002BD8   3c00                             MOVE.W    D0,D6
00002BDA   cc7c 00ff                        AND.W     #0x00ff,D6
00002BDE   1035 6002                        MOVE.B    (D_02,A5,D6.W),D0
00002BE2   4880                             EXT.W     D0
00002BE4   3e80                             MOVE.W    D0,(A7)
00002BE6   6100 fc70                        BSR       B_12858
00002BEA   600c                             BRA       B_2bf8
00002BEC   3eae fffe                        MOVE.W    (D_fffe,A6),(A7)
00002BF0   2f0d                             MOVE      A5,-(A7)
00002BF2   6100 fe8c                        BSR       B_12a80
00002BF6   588f                             ADDQ      #4,A7
00002BF8   6000 00ca                        BRA.L     B_2cc4
00002BFC   be3c 0010                        CMP.B     #0x0010,D7
00002C00   661a                             BNE       B_2c1c
00002C02   1039 0000 5d88                   MOVE.B    A_00005d88,D0
00002C08   6704                             BEQ       B_2c0e
00002C0A   4240                             CLR.W     D0
00002C0C   6004                             BRA       B_2c12
00002C0E   303c 0001                        MOVE.W    #0x0001,D0
00002C12   13c0 0000 5d88                   MOVE.B    D0,A_00005d88
00002C18   6000 00aa                        BRA.L     B_2cc4
00002C1C   be3c 0018                        CMP.B     #0x0018,D7
00002C20   6616                             BNE       B_2c38
00002C22   3eae fffe                        MOVE.W    (D_fffe,A6),(A7)
00002C26   2f0d                             MOVE      A5,-(A7)
00002C28   6100 fe56                        BSR       B_12a80
00002C2C   588f                             ADDQ      #4,A7
00002C2E   102d 0001                        MOVE.B    (D_0001,A5),D0
00002C32   66ee                             BNE       B_2c22
00002C34   6000 008e                        BRA.L     B_2cc4
00002C38   be3c 0005                        CMP.B     #0x0005,D7
00002C3C   660c                             BNE       B_2c4a
00002C3E   3eae fffe                        MOVE.W    (D_fffe,A6),(A7)
00002C42   6100 fe06                        BSR       B_12a4a
00002C46   6000 007c                        BRA.L     B_2cc4
00002C4A   be3c 0015                        CMP.B     #0x0015,D7
00002C4E   6616                             BNE       B_2c66
00002C50   3ebc 0023                        MOVE.W    #0x0023,(A7)
00002C54   6100 fc02                        BSR       B_12858
00002C58   3eae fffe                        MOVE.W    (D_fffe,A6),(A7)
00002C5C   6100 fdec                        BSR       B_12a4a
00002C60   422d 0001                        CLR.B     (D_0001,A5)
00002C64   605e                             BRA       B_2cc4
00002C66   be3c 0012                        CMP.B     #0x0012,D7
00002C6A   6632                             BNE       B_2c9e
00002C6C   3ebc 0023                        MOVE.W    #0x0023,(A7)
00002C70   6100 fbe6                        BSR       B_12858
00002C74   3eae fffe                        MOVE.W    (D_fffe,A6),(A7)
00002C78   6100 fdd0                        BSR       B_12a4a
00002C7C   4246                             CLR.W     D6
00002C7E   600e                             BRA       B_2c8e
00002C80   1035 6002                        MOVE.B    (D_02,A5,D6.W),D0
00002C84   4880                             EXT.W     D0
00002C86   3e80                             MOVE.W    D0,(A7)
00002C88   6100 fc78                        BSR       B_12902
00002C8C   5246                             ADDQ.W    #1,D6
00002C8E   4240                             CLR.W     D0
00002C90   102d 0001                        MOVE.B    (D_0001,A5),D0
00002C94   c07c 00ff                        AND.W     #0x00ff,D0
00002C98   bc40                             CMP.W     D0,D6
00002C9A   65e4                             BCS       B_2c80
00002C9C   6026                             BRA       B_2cc4
00002C9E   1007                             MOVE.B    D7,D0
00002CA0   4880                             EXT.W     D0
00002CA2   224d                             MOVE      A5,A1
00002CA4   142d 0001                        MOVE.B    (D_0001,A5),D2
00002CA8   4882                             EXT.W     D2
00002CAA   c47c 00ff                        AND.W     #0x00ff,D2
00002CAE   4842                             SWAP      d2
00002CB0   4242                             CLR.W     D2
00002CB2   4842                             SWAP      d2
00002CB4   d3c2                             ADDA      D2,A1
00002CB6   1340 0002                        MOVE.B    D0,(D_0002,A1)
00002CBA   3e80                             MOVE.W    D0,(A7)
00002CBC   6100 fc44                        BSR       B_12902
00002CC0   522d 0001                        ADDQ.B    #1,(D_0001,A5)
00002CC4   4240                             CLR.W     D0
00002CC6   102d 0001                        MOVE.B    (D_0001,A5),D0
00002CCA   c07c 00ff                        AND.W     #0x00ff,D0
00002CCE   4241                             CLR.W     D1
00002CD0   1215                             MOVE.B    (A5),D1
00002CD2   c27c 00ff                        AND.W     #0x00ff,D1
00002CD6   b041                             CMP.W     D1,D0
00002CD8   6500 fe84                        BCS.L     B_12b5e
00002CDC   4a9f                             TST       (A7)+
00002CDE   4cdf 30e0                        MOVEM     (A7)+,REGS D5-7A45
00002CE2   4e5e                             UNLK      a6
00002CE4   4e75                             RTS
00002CE6   4e56 0000                        LINK      A6,0x0
00002CEA   48e7 0104                        MOVEM     REGS D7A5,-(A7)
00002CEE   2ebc 0000 2722                   MOVE      #0x00002722,(A7)
00002CF4   3f3c 0022                        MOVE.W    #0x0022,-(A7)
00002CF8   3f3c 0016                        MOVE.W    #0x0016,-(A7)
00002CFC   4eb9 0000 275a                   JSR       A_0000275a
00002D02   588f                             ADDQ      #4,A7
00002D04   4239 0000 5d86                   CLR.B     A_00005d86
00002D0A   203c 0000 5df6                   MOVE      #0x00005df6,D0
00002D10   23c0 0000 5df2                   MOVE      D0,A_00005df2
00002D16   23c0 0000 5dee                   MOVE      D0,A_00005dee
00002D1C   13fc 0024 0000 5d87              MOVE.B    #0x0024,A_00005d87
00002D24   4239 0000 5d88                   CLR.B     A_00005d88
00002D2A   13fc 0001 0000 5d89              MOVE.B    #0x0001,A_00005d89
00002D32   42b9 0000 5f78                   CLR       A_00005f78
00002D38   3ebc 000d                        MOVE.W    #0x000d,(A7)
00002D3C   4eb9 0000 4306                   JSR       A_00004306
00002D42   3ebc 0012                        MOVE.W    #0x0012,(A7)
00002D46   4eb9 0000 2770                   JSR       A_00002770
00002D4C   2a40                             MOVE      D0,A5
00002D4E   202d 0002                        MOVE      (D_0002,A5),D0
00002D52   23c0 0000 60ac                   MOVE      D0,A_000060ac
00002D58   23c0 0000 60ba                   MOVE      D0,A_000060ba
00002D5E   202d 0006                        MOVE      (D_0006,A5),D0
00002D62   d0b9 0000 60ac                   ADD       A_000060ac,D0
00002D68   23c0 0000 60a6                   MOVE      D0,A_000060a6
00002D6E   23c0 0000 60b0                   MOVE      D0,A_000060b0
00002D74   2ebc 0000 5da6                   MOVE      #0x00005da6,(A7)
00002D7A   4eb9 0000 4d5e                   JSR       A_00004d5e
00002D80   4a9f                             TST       (A7)+
00002D82   4cdf 2000                        MOVEM     (A7)+,REGS A5
00002D86   4e5e                             UNLK      a6
00002D88   4e75                             RTS
00002D8A   4e56 fffc                        LINK      A6,0xfffc
00002D8E   0c6e 0002 0008                   CMP.W     #0x2,(D_0008,A6)
00002D94   6710                             BEQ       B_2da6
00002D96   3039 0000 60b8                   MOVE.W    A_000060b8,D0
00002D9C   4640                             NOT.W     D0
00002D9E   c179 0000 5d82                   AND.W     D0,A_00005d82
00002DA4   6014                             BRA       B_2dba
00002DA6   303c 0001                        MOVE.W    #0x0001,D0
00002DAA   1239 0000 5d8c                   MOVE.B    A_00005d8c,D1
00002DB0   4881                             EXT.W     D1
00002DB2   e360                             ASL.W     D1,D0
00002DB4   c179 0000 5d82                   AND.W     D0,A_00005d82
00002DBA   4279 0000 60b8                   CLR.W     A_000060b8
00002DC0   4279 0000 5e74                   CLR.W     A_00005e74
00002DC6   302e 0008                        MOVE.W    (D_0008,A6),D0
00002DCA   6710                             BEQ       B_2ddc
00002DCC   4240                             CLR.W     D0
00002DCE   13c0 0000 5646                   MOVE.B    D0,A_00005646
00002DD4   4880                             EXT.W     D0
00002DD6   13c0 0000 5644                   MOVE.B    D0,A_00005644
00002DDC   13fc 00ff 0000 5d8c              MOVE.B    #0x00ff,A_00005d8c
00002DE4   23f9 0000 60ac 0000 60ba         MOVE      A_000060ac,A_000060ba
00002DEE   23f9 0000 60a6 0000 60b0         MOVE      A_000060a6,A_000060b0
00002DF8   2ebc 0000 5da6                   MOVE      #0x00005da6,(A7)
00002DFE   4eb9 0000 4d5e                   JSR       A_00004d5e
00002E04   3ebc 0001                        MOVE.W    #0x0001,(A7)
00002E08   4eb9 0000 2770                   JSR       A_00002770
00002E0E   4e5e                             UNLK      a6
00002E10   4e75                             RTS
00002E12   4e56 fffc                        LINK      A6,0xfffc
00002E16   2eae 0008                        MOVE      (D_0008,A6),(A7)
00002E1A   4eb9 0000 2a1c                   JSR       A_00002a1c
00002E20   2ebc 0000 534f                   MOVE      #0x0000534f,(A7)
00002E26   4eb9 0000 2a1c                   JSR       A_00002a1c
00002E2C   1039 0000 5d8c                   MOVE.B    A_00005d8c,D0
00002E32   4880                             EXT.W     D0
00002E34   3e80                             MOVE.W    D0,(A7)
00002E36   0657 0041                        ADD.W     #0x41,(A7)
00002E3A   4eb9 0000 2858                   JSR       A_00002858
00002E40   4e5e                             UNLK      a6
00002E42   4e75                             RTS
00002E44   4e56 fffc                        LINK      A6,0xfffc
00002E48   2eae 0008                        MOVE      (D_0008,A6),(A7)
00002E4C   61c4                             BSR.S     B_2e12
00002E4E   3ebc 0001                        MOVE.W    #0x0001,(A7)
00002E52   6100 ff36                        BSR       B_12d8a
00002E56   4e5e                             UNLK      a6
00002E58   4e75                             RTS
00002E5A   4e56 0000                        LINK      A6,0x0
00002E5E   48e7 0700                        MOVEM     REGS D5-7,-(A7)
00002E62   1e2e 0009                        MOVE.B    (D_0009,A6),D7
00002E66   2eae 000a                        MOVE      (D_000a,A6),(A7)
00002E6A   61a6                             BSR.S     B_2e12
00002E6C   2eb9 0000 5276                   MOVE      A_00005276,(A7)
00002E72   4eb9 0000 2a1c                   JSR       A_00002a1c
00002E78   2ebc 0000 538e                   MOVE      #0x0000538e,(A7)
00002E7E   4eb9 0000 2a1c                   JSR       A_00002a1c
00002E84   1007                             MOVE.B    D7,D0
00002E86   670c                             BEQ       B_2e94
00002E88   2ebc 0000 53b8                   MOVE      #0x000053b8,(A7)
00002E8E   4eb9 0000 2a1c                   JSR       A_00002a1c
00002E94   2ebc 0000 53d9                   MOVE      #0x000053d9,(A7)
00002E9A   4eb9 0000 2a1c                   JSR       A_00002a1c
00002EA0   4eb9 0000 299c                   JSR       A_0000299c
00002EA6   1c00                             MOVE.B    D0,D6
00002EA8   2ebc 0000 53dd                   MOVE      #0x000053dd,(A7)
00002EAE   4eb9 0000 2a1c                   JSR       A_00002a1c
00002EB4   1006                             MOVE.B    D6,D0
00002EB6   4880                             EXT.W     D0
00002EB8   6022                             BRA       B_2edc
00002EBA   3ebc 0001                        MOVE.W    #0x0001,(A7)
00002EBE   6100 feca                        BSR       B_12d8a
00002EC2   3ebc 0001                        MOVE.W    #0x0001,(A7)
00002EC6   6100 fec2                        BSR       B_12d8a
00002ECA   1007                             MOVE.B    D7,D0
00002ECC   6706                             BEQ       B_2ed4
00002ECE   303c 0001                        MOVE.W    #0x0001,D0
00002ED2   6022                             BRA       B_2ef6
00002ED4   601e                             BRA       B_2ef4
00002ED6   4240                             CLR.W     D0
00002ED8   601c                             BRA       B_2ef6
00002EDA   6018                             BRA       B_2ef4
00002EDC   48c0                             EXT.L     D0
00002EDE   207c 0000 527a                   MOVE      #0x0000527a,A0
00002EE4   323c 0007                        MOVE.W    #0x0007,D1
00002EE8   b098                             CMP       (A0)+,D0
00002EEA   57c9 fffc                        DBEQ      D1,B_12ee8
00002EEE   2068 001c                        MOVE      (D_001c,A0),A0
00002EF2   4ed0                             JMP       (A0)
00002EF4   6082                             BRA       B_2e78
00002EF6   4a9f                             TST       (A7)+
00002EF8   4cdf 00c0                        MOVEM     (A7)+,REGS D67
00002EFC   4e5e                             UNLK      a6
00002EFE   4e75                             RTS
00002F00   4e56 0000                        LINK      A6,0x0
00002F04   48e7 070c                        MOVEM     REGS D5-7A45,-(A7)
00002F08   2a6e 0008                        MOVE      (D_0008,A6),A5
00002F0C   284d                             MOVE      A5,A4
00002F0E   2ebc 0000 53e1                   MOVE      #0x000053e1,(A7)
00002F14   4eb9 0000 2a1c                   JSR       A_00002a1c
00002F1A   3e3c 0008                        MOVE.W    #0x0008,D7
00002F1E   528c                             ADDQ      #1,A4
00002F20   1014                             MOVE.B    (A4),D0
00002F22   4880                             EXT.W     D0
00002F24   3e80                             MOVE.W    D0,(A7)
00002F26   0257 007f                        AND.W     #0x7f,(A7)
00002F2A   4eb9 0000 2858                   JSR       A_00002858
00002F30   5347                             SUBQ.W    #1,D7
00002F32   66ea                             BNE       B_2f1e
00002F34   3ebc 002e                        MOVE.W    #0x002e,(A7)
00002F38   4eb9 0000 2858                   JSR       A_00002858
00002F3E   3e3c 0003                        MOVE.W    #0x0003,D7
00002F42   528c                             ADDQ      #1,A4
00002F44   1014                             MOVE.B    (A4),D0
00002F46   4880                             EXT.W     D0
00002F48   3e80                             MOVE.W    D0,(A7)
00002F4A   0257 007f                        AND.W     #0x7f,(A7)
00002F4E   4eb9 0000 2858                   JSR       A_00002858
00002F54   5347                             SUBQ.W    #1,D7
00002F56   66ea                             BNE       B_2f42
00002F58   2ebc 0000 53f9                   MOVE      #0x000053f9,(A7)
00002F5E   4eb9 0000 2a1c                   JSR       A_00002a1c
00002F64   2eb9 0000 5276                   MOVE      A_00005276,(A7)
00002F6A   4eb9 0000 2a1c                   JSR       A_00002a1c
00002F70   2ebc 0000 5409                   MOVE      #0x00005409,(A7)
00002F76   4eb9 0000 2a1c                   JSR       A_00002a1c
00002F7C   4eb9 0000 299c                   JSR       A_0000299c
00002F82   1c00                             MOVE.B    D0,D6
00002F84   2ebc 0000 5448                   MOVE      #0x00005448,(A7)
00002F8A   4eb9 0000 2a1c                   JSR       A_00002a1c
00002F90   1006                             MOVE.B    D6,D0
00002F92   4880                             EXT.W     D0
00002F94   603c                             BRA       B_2fd2
00002F96   3ebc 0001                        MOVE.W    #0x0001,(A7)
00002F9A   6100 fdee                        BSR       B_12d8a
00002F9E   3ebc 0001                        MOVE.W    #0x0001,(A7)
00002FA2   6100 fde6                        BSR       B_12d8a
00002FA6   022d 007f 0009                   AND.B     #0x7f,(D_0009,A5)
00002FAC   3ebc 0002                        MOVE.W    #0x0002,(A7)
00002FB0   2f0d                             MOVE      A5,-(A7)
00002FB2   2f3c 0000 3bfe                   MOVE      #0x00003bfe,-(A7)
00002FB8   4eb9 0000 3286                   JSR       A_00003286
00002FBE   508f                             ADDQ      #8,A7
00002FC0   302e 000c                        MOVE.W    (D_000c,A6),D0
00002FC4   e440                             ASR.W     #2,D0
00002FC6   3e80                             MOVE.W    D0,(A7)
00002FC8   4eb9 0000 31dc                   JSR       A_000031dc
00002FCE   601c                             BRA       B_2fec
00002FD0   6018                             BRA       B_2fea
00002FD2   48c0                             EXT.L     D0
00002FD4   207c 0000 52ba                   MOVE      #0x000052ba,A0
00002FDA   323c 0005                        MOVE.W    #0x0005,D1
00002FDE   b098                             CMP       (A0)+,D0
00002FE0   57c9 fffc                        DBEQ      D1,B_12fde
00002FE4   2068 0014                        MOVE      (D_0014,A0),A0
00002FE8   4ed0                             JMP       (A0)
00002FEA   6084                             BRA       B_2f70
00002FEC   4a9f                             TST       (A7)+
00002FEE   4cdf 30c0                        MOVEM     (A7)+,REGS D67A45
00002FF2   4e5e                             UNLK      a6
00002FF4   4e75                             RTS
00002FF6   4e56 fffc                        LINK      A6,0xfffc
00002FFA   2ebc 0000 544c                   MOVE      #0x0000544c,(A7)
00003000   4eb9 0000 2a1c                   JSR       A_00002a1c
00003006   302e 0008                        MOVE.W    (D_0008,A6),D0
0000300A   604a                             BRA       B_3056
0000300C   2ebc 0000 545a                   MOVE      #0x0000545a,(A7)
00003012   3f3c 0001                        MOVE.W    #0x0001,-(A7)
00003016   6100 fe42                        BSR       B_12e5a
0000301A   548f                             ADDQ      #2,A7
0000301C   604c                             BRA       B_306a
0000301E   2ebc 0000 5460                   MOVE      #0x00005460,(A7)
00003024   3f3c 0001                        MOVE.W    #0x0001,-(A7)
00003028   6100 fe30                        BSR       B_12e5a
0000302C   548f                             ADDQ      #2,A7
0000302E   603a                             BRA       B_306a
00003030   2ebc 0000 5467                   MOVE      #0x00005467,(A7)
00003036   6100 fe0c                        BSR       B_12e44
0000303A   2ebc 0000 546f                   MOVE      #0x0000546f,(A7)
00003040   4267                             CLR.W     -(A7)
00003042   6100 fe16                        BSR       B_12e5a
00003046   548f                             ADDQ      #2,A7
00003048   6020                             BRA       B_306a
0000304A   2ebc 0000 5477                   MOVE      #0x00005477,(A7)
00003050   6100 fdf2                        BSR       B_12e44
00003054   6014                             BRA       B_306a
00003056   b07c 0004                        CMP.W     #0x0004,D0
0000305A   620e                             BHI       B_306a
0000305C   e540                             ASL.W     #2,D0
0000305E   3040                             MOVE.W    D0,A0
00003060   d1fc 0000 52ea                   ADDA      #0x000052ea,A0
00003066   2050                             MOVE      (A0),A0
00003068   4ed0                             JMP       (A0)
0000306A   4e5e                             UNLK      a6
0000306C   4e75                             RTS
0000306E   4e56 0000                        LINK      A6,0x0
00003072   48e7 0304                        MOVEM     REGS D67A5,-(A7)
00003076   2a6e 0008                        MOVE      (D_0008,A6),A5
0000307A   3e15                             MOVE.W    (A5),D7
0000307C   5547                             SUBQ.W    #2,D7
0000307E   be7c 0020                        CMP.W     #0x0020,D7
00003082   6706                             BEQ       B_308a
00003084   be7c 0021                        CMP.W     #0x0021,D7
00003088   6606                             BNE       B_3090
0000308A   303c ffff                        MOVE.W    #0xffff,D0
0000308E   6048                             BRA       B_30d8
00003090   be7c 001e                        CMP.W     #0x001e,D7
00003094   6d0c                             BLT       B_30a2
00003096   be7c 0025                        CMP.W     #0x0025,D7
0000309A   6e06                             BGT       B_30a2
0000309C   9e7c 0014                        SUB.W     #0x0014,D7
000030A0   6010                             BRA       B_30b2
000030A2   3007                             MOVE.W    D7,D0
000030A4   6d06                             BLT       B_30ac
000030A6   be7c 0009                        CMP.W     #0x0009,D7
000030AA   6f06                             BLE       B_30b2
000030AC   303c 00ff                        MOVE.W    #0x00ff,D0
000030B0   6026                             BRA       B_30d8
000030B2   3047                             MOVE.W    D7,A0
000030B4   d1c8                             ADDA      A0,A0
000030B6   d1c8                             ADDA      A0,A0
000030B8   d1fc 0000 5d86                   ADDA      #0x00005d86,A0
000030BE   2b68 0020 0006                   MOVE      (D_0020,A0),(D_0006,A5)
000030C4   3047                             MOVE.W    D7,A0
000030C6   d1c8                             ADDA      A0,A0
000030C8   d1c8                             ADDA      A0,A0
000030CA   d1fc 0000 5d86                   ADDA      #0x00005d86,A0
000030D0   216d 0002 0020                   MOVE      (D_0002,A5),(D_0020,A0)
000030D6   4240                             CLR.W     D0
000030D8   4a9f                             TST       (A7)+
000030DA   4cdf 2080                        MOVEM     (A7)+,REGS D7A5
000030DE   4e5e                             UNLK      a6
000030E0   4e75                             RTS
000030E2   4e56 0000                        LINK      A6,0x0
000030E6   48e7 0104                        MOVEM     REGS D7A5,-(A7)
000030EA   2a6e 0008                        MOVE      (D_0008,A6),A5
000030EE   082d 0000 0001                   BTST      #0,(D_0001,A5)
000030F4   672e                             BEQ       B_3124
000030F6   23ed 0002 0000 60ba              MOVE      (D_0002,A5),A_000060ba
000030FE   23ed 0006 0000 60b0              MOVE      (D_0006,A5),A_000060b0
00003106   082d 0001 0001                   BTST      #1,(D_0001,A5)
0000310C   6714                             BEQ       B_3122
0000310E   23f9 0000 60ba 0000 60ac         MOVE      A_000060ba,A_000060ac
00003118   23f9 0000 60b0 0000 60a6         MOVE      A_000060b0,A_000060a6
00003122   6010                             BRA       B_3134
00003124   2b79 0000 60ba 0002              MOVE      A_000060ba,(D_0002,A5)
0000312C   2b79 0000 60b0 0006              MOVE      A_000060b0,(D_0006,A5)
00003134   4a9f                             TST       (A7)+
00003136   4cdf 2000                        MOVEM     (A7)+,REGS A5
0000313A   4e5e                             UNLK      a6
0000313C   4e75                             RTS
0000313E   4e56 ffee                        LINK      A6,0xffee
00003142   48e7 0300                        MOVEM     REGS D67,-(A7)
00003146   3e2e 0010                        MOVE.W    (D_0010,A6),D7
0000314A   1d79 0000 5d8c fff1              MOVE.B    A_00005d8c,(D_fff1,A6)
00003152   3007                             MOVE.W    D7,D0
00003154   6732                             BEQ       B_3188
00003156   1d7c 0002 ffee                   MOVE.B    #0x0002,(D_ffee,A6)
0000315C   3007                             MOVE.W    D7,D0
0000315E   5340                             SUBQ.W    #1,D0
00003160   4880                             EXT.W     D0
00003162   1d40 ffef                        MOVE.B    D0,(D_ffef,A6)
00003166   303c 0001                        MOVE.W    #0x0001,D0
0000316A   122e fff1                        MOVE.B    (D_fff1,A6),D1
0000316E   4881                             EXT.W     D1
00003170   e360                             ASL.W     D1,D0
00003172   3239 0000 60b8                   MOVE.W    A_000060b8,D1
00003178   c041                             AND.W     D1,D0
0000317A   670a                             BEQ       B_3186
0000317C   3ebc 0004                        MOVE.W    #0x0004,(A7)
00003180   4eb9 0000 2ff6                   JSR       A_00002ff6
00003186   600a                             BRA       B_3192
00003188   1d7c 0001 ffee                   MOVE.B    #0x0001,(D_ffee,A6)
0000318E   422e ffef                        CLR.B     (D_ffef,A6)
00003192   2d6e 0008 fff2                   MOVE      (D_0008,A6),(D_fff2,A6)
00003198   2d6e 000c fff8                   MOVE      (D_000c,A6),(D_fff8,A6)
0000319E   2d79 0000 5d90 fffc              MOVE      A_00005d90,(D_fffc,A6)
000031A6   6016                             BRA       B_31be
000031A8   3007                             MOVE.W    D7,D0
000031AA   6706                             BEQ       B_31b2
000031AC   3ebc 0001                        MOVE.W    #0x0001,(A7)
000031B0   6002                             BRA       B_31b4
000031B2   4257                             CLR.W     (A7)
000031B4   4eb9 0000 2ff6                   JSR       A_00002ff6
000031BA   4a40                             TST.W     D0
000031BC   6612                             BNE       B_31d0
000031BE   2e8e                             MOVE      A6,(A7)
000031C0   0697 ffff ffee                   ADD       #0xffffffee,(A7)
000031C6   4eb9 0000 4780                   JSR       A_00004780
000031CC   4a40                             TST.W     D0
000031CE   66d8                             BNE       B_31a8
000031D0   4240                             CLR.W     D0
000031D2   4a9f                             TST       (A7)+
000031D4   4cdf 0080                        MOVEM     (A7)+,REGS D7
000031D8   4e5e                             UNLK      a6
000031DA   4e75                             RTS
000031DC   4e56 fffc                        LINK      A6,0xfffc
000031E0   4257                             CLR.W     (A7)
000031E2   2f39 0000 5d94                   MOVE      A_00005d94,-(A7)
000031E8   306e 0008                        MOVE.W    (D_0008,A6),A0
000031EC   2f08                             MOVE      A0,-(A7)
000031EE   6100 ff4e                        BSR       B_1313e
000031F2   508f                             ADDQ      #8,A7
000031F4   4e5e                             UNLK      a6
000031F6   4e75                             RTS
000031F8   4e56 0000                        LINK      A6,0x0
000031FC   48e7 0700                        MOVEM     REGS D5-7,-(A7)
00003200   3e2e 0008                        MOVE.W    (D_0008,A6),D7
00003204   3ebc 0002                        MOVE.W    #0x0002,(A7)
00003208   2f39 0000 5d94                   MOVE      A_00005d94,-(A7)
0000320E   3047                             MOVE.W    D7,A0
00003210   2f08                             MOVE      A0,-(A7)
00003212   6100 ff2a                        BSR       B_1313e
00003216   508f                             ADDQ      #8,A7
00003218   3c00                             MOVE.W    D0,D6
0000321A   2079 0000 5d98                   MOVE      A_00005d98,A0
00003220   be68 000c                        CMP.W     (D_000c,A0),D7
00003224   6416                             BCC       B_323c
00003226   3047                             MOVE.W    D7,A0
00003228   2279 0000 5d90                   MOVE      A_00005d90,A1
0000322E   2269 0012                        MOVE      (D_0012,A1),A1
00003232   d1c9                             ADDA      A1,A0
00003234   2f08                             MOVE      A0,-(A7)
00003236   6110                             BSR.S     B_3248
00003238   205f                             MOVE      (A7)+,A0
0000323A   1080                             MOVE.B    D0,(A0)
0000323C   3006                             MOVE.W    D6,D0
0000323E   4a9f                             TST       (A7)+
00003240   4cdf 00c0                        MOVEM     (A7)+,REGS D67
00003244   4e5e                             UNLK      a6
00003246   4e75                             RTS
00003248   4e56 0000                        LINK      A6,0x0
0000324C   48e7 0704                        MOVEM     REGS D5-7A5,-(A7)
00003250   2a79 0000 5d94                   MOVE      A_00005d94,A5
00003256   4287                             CLR       D7
00003258   3c3c 0020                        MOVE.W    #0x0020,D6
0000325C   de9d                             ADD       (A5)+,D7
0000325E   5346                             SUBQ.W    #1,D6
00003260   3006                             MOVE.W    D6,D0
00003262   66f8                             BNE       B_325c
00003264   2007                             MOVE      D7,D0
00003266   7210                             MOVEQ     #0x10,D1
00003268   e2a0                             ASR       D1,D0
0000326A   de80                             ADD       D0,D7
0000326C   2007                             MOVE      D7,D0
0000326E   e080                             ASR       #8,D0
00003270   de80                             ADD       D0,D7
00003272   2007                             MOVE      D7,D0
00003274   c0bc 0000 00ff                   AND       #0x000000ff,D0
0000327A   4880                             EXT.W     D0
0000327C   4a9f                             TST       (A7)+
0000327E   4cdf 20c0                        MOVEM     (A7)+,REGS D67A5
00003282   4e5e                             UNLK      a6
00003284   4e75                             RTS
00003286   4e56 0000                        LINK      A6,0x0
0000328A   48e7 3f1c                        MOVEM     REGS D2-7A3-5,-(A7)
0000328E   2a6e 000c                        MOVE      (D_000c,A6),A5
00003292   3e2e 0010                        MOVE.W    (D_0010,A6),D7
00003296   2879 0000 5d98                   MOVE      A_00005d98,A4
0000329C   383c 00ff                        MOVE.W    #0x00ff,D4
000032A0   0807 0000                        BTST      #0,D7
000032A4   670a                             BEQ       B_32b0
000032A6   3039 0000 5d9c                   MOVE.W    A_00005d9c,D0
000032AC   5240                             ADDQ.W    #1,D0
000032AE   6002                             BRA       B_32b2
000032B0   4240                             CLR.W     D0
000032B2   3c00                             MOVE.W    D0,D6
000032B4   6000 00de                        BRA.L     B_3394
000032B8   bc6c 0008                        CMP.W     (D_0008,A4),D6
000032BC   6200 00f0                        BHI.L     B_33ae
000032C0   3006                             MOVE.W    D6,D0
000032C2   c07c 0003                        AND.W     #0x0003,D0
000032C6   6600 0088                        BNE.L     B_3350
000032CA   3a06                             MOVE.W    D6,D5
000032CC   e44d                             LSR.W     #2,D5
000032CE   3e85                             MOVE.W    D5,(A7)
000032D0   6100 ff0a                        BSR       B_131dc
000032D4   ba6c 000c                        CMP.W     (D_000c,A4),D5
000032D8   6400 0076                        BCC.L     B_3350
000032DC   4280                             CLR       D0
000032DE   3005                             MOVE.W    D5,D0
000032E0   2640                             MOVE      D0,A3
000032E2   2079 0000 5d90                   MOVE      A_00005d90,A0
000032E8   2028 0012                        MOVE      (D_0012,A0),D0
000032EC   d7c0                             ADDA      D0,A3
000032EE   0807 0002                        BTST      #2,D7
000032F2   6708                             BEQ       B_32fc
000032F4   6100 ff52                        BSR       B_13248
000032F8   1680                             MOVE.B    D0,(A3)
000032FA   6054                             BRA       B_3350
000032FC   6100 ff4a                        BSR       B_13248
00003300   b013                             CMP.B     (A3),D0
00003302   674c                             BEQ       B_3350
00003304   2079 0000 5d90                   MOVE      A_00005d90,A0
0000330A   316c 0008 0004                   MOVE.W    (D_0008,A4),(D_0004,A0)
00003310   363c 0001                        MOVE.W    #0x0001,D3
00003314   1039 0000 5d8c                   MOVE.B    A_00005d8c,D0
0000331A   4880                             EXT.W     D0
0000331C   e16b                             LSL.W     D0,D3
0000331E   3003                             MOVE.W    D3,D0
00003320   3239 0000 5e74                   MOVE.W    A_00005e74,D1
00003326   c041                             AND.W     D1,D0
00003328   6708                             BEQ       B_3332
0000332A   8779 0000 60b8                   OR.W      D3,A_000060b8
00003330   601e                             BRA       B_3350
00003332   3003                             MOVE.W    D3,D0
00003334   4640                             NOT.W     D0
00003336   c179 0000 5d82                   AND.W     D0,A_00005d82
0000333C   1039 0000 5d8c                   MOVE.B    A_00005d8c,D0
00003342   4880                             EXT.W     D0
00003344   3e80                             MOVE.W    D0,(A7)
00003346   4eb9 0000 3574                   JSR       A_00003574
0000334C   6000 ff48                        BRA.L     B_13296
00003350   33c6 0000 5d9c                   MOVE.W    D6,A_00005d9c
00003356   3f06                             MOVE.W    D6,-(A7)
00003358   3006                             MOVE.W    D6,D0
0000335A   c07c 0003                        AND.W     #0x0003,D0
0000335E   eb48                             LSL.W     #5,D0
00003360   4840                             SWAP      d0
00003362   4240                             CLR.W     D0
00003364   4840                             SWAP      d0
00003366   d0b9 0000 5d94                   ADD       A_00005d94,D0
0000336C   2f00                             MOVE      D0,-(A7)
0000336E   2f0d                             MOVE      A5,-(A7)
00003370   206e 0008                        MOVE      (D_0008,A6),A0
00003374   4e90                             JSR       (A0)
00003376   dffc 0000 000a                   ADDA      #0x0000000a,A7
0000337C   4a40                             TST.W     D0
0000337E   6712                             BEQ       B_3392
00003380   0807 0001                        BTST      #1,D7
00003384   6704                             BEQ       B_338a
00003386   4244                             CLR.W     D4
00003388   6008                             BRA       B_3392
0000338A   3006                             MOVE.W    D6,D0
0000338C   c07c 0003                        AND.W     #0x0003,D0
00003390   601e                             BRA       B_33b0
00003392   5246                             ADDQ.W    #1,D6
00003394   0807 0003                        BTST      #3,D7
00003398   6600 ff1e                        BNE.L     B_132b8
0000339C   2079 0000 5d90                   MOVE      A_00005d90,A0
000033A2   3028 0004                        MOVE.W    (D_0004,A0),D0
000033A6   5240                             ADDQ.W    #1,D0
000033A8   bc40                             CMP.W     D0,D6
000033AA   6300 ff0c                        BLS.L     B_132b8
000033AE   3004                             MOVE.W    D4,D0
000033B0   4a9f                             TST       (A7)+
000033B2   4cdf 38f8                        MOVEM     (A7)+,REGS D3-7A3-5
000033B6   4e5e                             UNLK      a6
000033B8   4e75                             RTS
000033BA   4e56 0000                        LINK      A6,0x0
000033BE   48e7 0300                        MOVEM     REGS D67,-(A7)
000033C2   3e2e 0008                        MOVE.W    (D_0008,A6),D7
000033C6   3007                             MOVE.W    D7,D0
000033C8   6536                             BCS       B_3400
000033CA   2079 0000 5d98                   MOVE      A_00005d98,A0
000033D0   be68 0006                        CMP.W     (D_0006,A0),D7
000033D4   622a                             BHI       B_3400
000033D6   303c 0080                        MOVE.W    #0x0080,D0
000033DA   3207                             MOVE.W    D7,D1
000033DC   c27c 0007                        AND.W     #0x0007,D1
000033E0   e260                             ASR.W     D1,D0
000033E2   3f00                             MOVE.W    D0,-(A7)
000033E4   2079 0000 5d90                   MOVE      A_00005d90,A0
000033EA   2068 0016                        MOVE      (D_0016,A0),A0
000033EE   3207                             MOVE.W    D7,D1
000033F0   e649                             LSR.W     #3,D1
000033F2   4841                             SWAP      d1
000033F4   4241                             CLR.W     D1
000033F6   4841                             SWAP      d1
000033F8   d1c1                             ADDA      D1,A0
000033FA   1010                             MOVE.B    (A0),D0
000033FC   805f                             OR.W      (A7)+,D0
000033FE   1080                             MOVE.B    D0,(A0)
00003400   4a9f                             TST       (A7)+
00003402   4cdf 0080                        MOVEM     (A7)+,REGS D7
00003406   4e5e                             UNLK      a6
00003408   4e75                             RTS
0000340A   4e56 0000                        LINK      A6,0x0
0000340E   48e7 0300                        MOVEM     REGS D67,-(A7)
00003412   3e2e 0008                        MOVE.W    (D_0008,A6),D7
00003416   3007                             MOVE.W    D7,D0
00003418   6338                             BLS       B_3452
0000341A   2079 0000 5d98                   MOVE      A_00005d98,A0
00003420   be68 0006                        CMP.W     (D_0006,A0),D7
00003424   622c                             BHI       B_3452
00003426   303c 0080                        MOVE.W    #0x0080,D0
0000342A   3207                             MOVE.W    D7,D1
0000342C   c27c 0007                        AND.W     #0x0007,D1
00003430   e260                             ASR.W     D1,D0
00003432   4640                             NOT.W     D0
00003434   3f00                             MOVE.W    D0,-(A7)
00003436   2079 0000 5d90                   MOVE      A_00005d90,A0
0000343C   2068 0016                        MOVE      (D_0016,A0),A0
00003440   3207                             MOVE.W    D7,D1
00003442   e649                             LSR.W     #3,D1
00003444   4841                             SWAP      d1
00003446   4241                             CLR.W     D1
00003448   4841                             SWAP      d1
0000344A   d1c1                             ADDA      D1,A0
0000344C   1010                             MOVE.B    (A0),D0
0000344E   c05f                             AND.W     (A7)+,D0
00003450   1080                             MOVE.B    D0,(A0)
00003452   4a9f                             TST       (A7)+
00003454   4cdf 0080                        MOVEM     (A7)+,REGS D7
00003458   4e5e                             UNLK      a6
0000345A   4e75                             RTS
0000345C   4e56 0000                        LINK      A6,0x0
00003460   48e7 0300                        MOVEM     REGS D67,-(A7)
00003464   3e2e 0008                        MOVE.W    (D_0008,A6),D7
00003468   3007                             MOVE.W    D7,D0
0000346A   e648                             LSR.W     #3,D0
0000346C   3040                             MOVE.W    D0,A0
0000346E   2279 0000 5d90                   MOVE      A_00005d90,A1
00003474   2269 0016                        MOVE      (D_0016,A1),A1
00003478   1030 9800                        MOVE.B    (D_00,A0,A1.L),D0
0000347C   4880                             EXT.W     D0
0000347E   4640                             NOT.W     D0
00003480   323c 0080                        MOVE.W    #0x0080,D1
00003484   3407                             MOVE.W    D7,D2
00003486   c47c 0007                        AND.W     #0x0007,D2
0000348A   e461                             ASR.W     D2,D1
0000348C   c041                             AND.W     D1,D0
0000348E   4a9f                             TST       (A7)+
00003490   4cdf 0080                        MOVEM     (A7)+,REGS D7
00003494   4e5e                             UNLK      a6
00003496   4e75                             RTS
00003498   4e56 0000                        LINK      A6,0x0
0000349C   48e7 1f00                        MOVEM     REGS D3-7,-(A7)
000034A0   3e2e 0008                        MOVE.W    (D_0008,A6),D7
000034A4   2079 0000 5d98                   MOVE      A_00005d98,A0
000034AA   3828 0006                        MOVE.W    (D_0006,A0),D4
000034AE   3a07                             MOVE.W    D7,D5
000034B0   3c3c ffff                        MOVE.W    #0xffff,D6
000034B4   6024                             BRA       B_34da
000034B6   3007                             MOVE.W    D7,D0
000034B8   670e                             BEQ       B_34c8
000034BA   5347                             SUBQ.W    #1,D7
000034BC   3e87                             MOVE.W    D7,(A7)
000034BE   619c                             BSR.S     B_345c
000034C0   4a40                             TST.W     D0
000034C2   6704                             BEQ       B_34c8
000034C4   3c07                             MOVE.W    D7,D6
000034C6   601a                             BRA       B_34e2
000034C8   ba44                             CMP.W     D4,D5
000034CA   640e                             BCC       B_34da
000034CC   5245                             ADDQ.W    #1,D5
000034CE   3e85                             MOVE.W    D5,(A7)
000034D0   618a                             BSR.S     B_345c
000034D2   4a40                             TST.W     D0
000034D4   6704                             BEQ       B_34da
000034D6   3c05                             MOVE.W    D5,D6
000034D8   6008                             BRA       B_34e2
000034DA   3007                             MOVE.W    D7,D0
000034DC   66d8                             BNE       B_34b6
000034DE   ba44                             CMP.W     D4,D5
000034E0   65d4                             BCS       B_34b6
000034E2   bc7c ffff                        CMP.W     #0xffff,D6
000034E6   6706                             BEQ       B_34ee
000034E8   3e86                             MOVE.W    D6,(A7)
000034EA   6100 fece                        BSR       B_133ba
000034EE   3006                             MOVE.W    D6,D0
000034F0   4a9f                             TST       (A7)+
000034F2   4cdf 00f0                        MOVEM     (A7)+,REGS D4-7
000034F6   4e5e                             UNLK      a6
000034F8   4e75                             RTS
000034FA   4e56 0000                        LINK      A6,0x0
000034FE   48e7 0304                        MOVEM     REGS D67A5,-(A7)
00003502   2a6e 000c                        MOVE      (D_000c,A6),A5
00003506   4240                             CLR.W     D0
00003508   1015                             MOVE.B    (A5),D0
0000350A   c07c 00ff                        AND.W     #0x00ff,D0
0000350E   b07c 0010                        CMP.W     #0x0010,D0
00003512   6456                             BCC       B_356a
00003514   2079 0000 5d90                   MOVE      A_00005d90,A0
0000351A   316e 0010 0004                   MOVE.W    (D_0010,A6),(D_0004,A0)
00003520   4247                             CLR.W     D7
00003522   2079 0000 5d98                   MOVE      A_00005d98,A0
00003528   0c68 0100 0006                   CMP.W     #0x100,(D_0006,A0)
0000352E   641c                             BCC       B_354c
00003530   4240                             CLR.W     D0
00003532   1035 7010                        MOVE.B    (D_10,A5,D7.W),D0
00003536   3e80                             MOVE.W    D0,(A7)
00003538   0257 00ff                        AND.W     #0xff,(A7)
0000353C   4eb9 0000 33ba                   JSR       A_000033ba
00003542   5247                             ADDQ.W    #1,D7
00003544   be7c 000f                        CMP.W     #0x000f,D7
00003548   6fe6                             BLE       B_3530
0000354A   601e                             BRA       B_356a
0000354C   3047                             MOVE.W    D7,A0
0000354E   d1c8                             ADDA      A0,A0
00003550   3eb5 8810                        MOVE.W    (D_10,A5,A0.L),(A7)
00003554   4eb9 0000 2780                   JSR       A_00002780
0000355A   3e80                             MOVE.W    D0,(A7)
0000355C   4eb9 0000 33ba                   JSR       A_000033ba
00003562   5247                             ADDQ.W    #1,D7
00003564   be7c 0007                        CMP.W     #0x0007,D7
00003568   6fe2                             BLE       B_354c
0000356A   4a9f                             TST       (A7)+
0000356C   4cdf 2080                        MOVEM     (A7)+,REGS D7A5
00003570   4e5e                             UNLK      a6
00003572   4e75                             RTS
00003574   4e56 ffec                        LINK      A6,0xffec
00003578   48e7 0f00                        MOVEM     REGS D4-7,-(A7)
0000357C   1e2e 0009                        MOVE.B    (D_0009,A6),D7
00003580   3039 0000 5d82                   MOVE.W    A_00005d82,D0
00003586   1207                             MOVE.B    D7,D1
00003588   4881                             EXT.W     D1
0000358A   e268                             LSR.W     D1,D0
0000358C   4640                             NOT.W     D0
0000358E   c07c 0001                        AND.W     #0x0001,D0
00003592   4880                             EXT.W     D0
00003594   1a00                             MOVE.B    D0,D5
00003596   be39 0000 5d8c                   CMP.B     A_00005d8c,D7
0000359C   6606                             BNE       B_35a4
0000359E   1005                             MOVE.B    D5,D0
000035A0   6700 0080                        BEQ.L     B_3622
000035A4   422e ffee                        CLR.B     (D_ffee,A6)
000035A8   1007                             MOVE.B    D7,D0
000035AA   4880                             EXT.W     D0
000035AC   1d40 fff1                        MOVE.B    D0,(D_fff1,A6)
000035B0   4880                             EXT.W     D0
000035B2   13c0 0000 5d8c                   MOVE.B    D0,A_00005d8c
000035B8   4240                             CLR.W     D0
000035BA   1007                             MOVE.B    D7,D0
000035BC   c07c 00ff                        AND.W     #0x00ff,D0
000035C0   b07c 000f                        CMP.W     #0x000f,D0
000035C4   630a                             BLS       B_35d0
000035C6   3ebc 0002                        MOVE.W    #0x0002,(A7)
000035CA   4eb9 0000 2ff6                   JSR       A_00002ff6
000035D0   1005                             MOVE.B    D5,D0
000035D2   4880                             EXT.W     D0
000035D4   323c 0001                        MOVE.W    #0x0001,D1
000035D8   b340                             EOR.W     D1,D0
000035DA   4880                             EXT.W     D0
000035DC   1d40 ffef                        MOVE.B    D0,(D_ffef,A6)
000035E0   2e8e                             MOVE      A6,(A7)
000035E2   0697 ffff ffee                   ADD       #0xffffffee,(A7)
000035E8   4eb9 0000 4780                   JSR       A_00004780
000035EE   23ee fffc 0000 5d90              MOVE      (D_fffc,A6),A_00005d90
000035F6   660e                             BNE       B_3606
000035F8   3ebc 0003                        MOVE.W    #0x0003,(A7)
000035FC   4eb9 0000 2ff6                   JSR       A_00002ff6
00003602   4a40                             TST.W     D0
00003604   67da                             BEQ       B_35e0
00003606   2079 0000 5d90                   MOVE      A_00005d90,A0
0000360C   23e8 000a 0000 5d94              MOVE      (D_000a,A0),A_00005d94
00003614   2079 0000 5d90                   MOVE      A_00005d90,A0
0000361A   23e8 000e 0000 5d98              MOVE      (D_000e,A0),A_00005d98
00003622   1005                             MOVE.B    D5,D0
00003624   6700 0096                        BEQ.L     B_36bc
00003628   2079 0000 5d98                   MOVE      A_00005d98,A0
0000362E   3c28 0006                        MOVE.W    (D_0006,A0),D6
00003632   3e86                             MOVE.W    D6,(A7)
00003634   4eb9 0000 340a                   JSR       A_0000340a
0000363A   3006                             MOVE.W    D6,D0
0000363C   5346                             SUBQ.W    #1,D6
0000363E   4a40                             TST.W     D0
00003640   66f0                             BNE       B_3632
00003642   2e8e                             MOVE      A6,(A7)
00003644   0697 ffff ffec                   ADD       #0xffffffec,(A7)
0000364A   2079 0000 5d98                   MOVE      A_00005d98,A0
00003650   1028 0003                        MOVE.B    (D_0003,A0),D0
00003654   4880                             EXT.W     D0
00003656   5240                             ADDQ.W    #1,D0
00003658   e540                             ASL.W     #2,D0
0000365A   3f00                             MOVE.W    D0,-(A7)
0000365C   2079 0000 5d98                   MOVE      A_00005d98,A0
00003662   3028 0008                        MOVE.W    (D_0008,A0),D0
00003666   5240                             ADDQ.W    #1,D0
00003668   4281                             CLR       D1
0000366A   3200                             MOVE.W    D0,D1
0000366C   2f01                             MOVE      D1,-(A7)
0000366E   4eb9 0000 278c                   JSR       A_0000278c
00003674   5c8f                             ADDQ      #6,A7
00003676   3c00                             MOVE.W    D0,D6
00003678   302e ffec                        MOVE.W    (D_ffec,A6),D0
0000367C   6702                             BEQ       B_3680
0000367E   5246                             ADDQ.W    #1,D6
00003680   5346                             SUBQ.W    #1,D6
00003682   3e86                             MOVE.W    D6,(A7)
00003684   4eb9 0000 33ba                   JSR       A_000033ba
0000368A   3006                             MOVE.W    D6,D0
0000368C   66f2                             BNE       B_3680
0000368E   2079 0000 5d90                   MOVE      A_00005d90,A0
00003694   4268 0004                        CLR.W     (D_0004,A0)
00003698   3ebc 000e                        MOVE.W    #0x000e,(A7)
0000369C   42a7                             CLR       -(A7)
0000369E   2f3c 0000 34fa                   MOVE      #0x000034fa,-(A7)
000036A4   4eb9 0000 3286                   JSR       A_00003286
000036AA   508f                             ADDQ      #8,A7
000036AC   303c 0001                        MOVE.W    #0x0001,D0
000036B0   1207                             MOVE.B    D7,D1
000036B2   4881                             EXT.W     D1
000036B4   e360                             ASL.W     D1,D0
000036B6   8179 0000 5d82                   OR.W      D0,A_00005d82
000036BC   4a9f                             TST       (A7)+
000036BE   4cdf 00e0                        MOVEM     (A7)+,REGS D5-7
000036C2   4e5e                             UNLK      a6
000036C4   4e75                             RTS
000036C6   4e56 0000                        LINK      A6,0x0
000036CA   48e7 030c                        MOVEM     REGS D67A45,-(A7)
000036CE   2a6e 0008                        MOVE      (D_0008,A6),A5
000036D2   286e 000c                        MOVE      (D_000c,A6),A4
000036D6   3e2e 0010                        MOVE.W    (D_0010,A6),D7
000036DA   6002                             BRA       B_36de
000036DC   18dd                             MOVE.B    (A5)+,(A4)+
000036DE   3007                             MOVE.W    D7,D0
000036E0   5347                             SUBQ.W    #1,D7
000036E2   4a40                             TST.W     D0
000036E4   66f6                             BNE       B_36dc
000036E6   4a9f                             TST       (A7)+
000036E8   4cdf 3080                        MOVEM     (A7)+,REGS D7A45
000036EC   4e5e                             UNLK      a6
000036EE   4e75                             RTS
000036F0   4e56 0000                        LINK      A6,0x0
000036F4   48e7 070c                        MOVEM     REGS D5-7A45,-(A7)
000036F8   2a6e 0008                        MOVE      (D_0008,A6),A5
000036FC   286e 000c                        MOVE      (D_000c,A6),A4
00003700   3e3c 000c                        MOVE.W    #0x000c,D7
00003704   1015                             MOVE.B    (A5),D0
00003706   4880                             EXT.W     D0
00003708   323c 003f                        MOVE.W    #0x003f,D1
0000370C   b340                             EOR.W     D1,D0
0000370E   4880                             EXT.W     D0
00003710   1c00                             MOVE.B    D0,D6
00003712   101d                             MOVE.B    (A5)+,D0
00003714   4880                             EXT.W     D0
00003716   121c                             MOVE.B    (A4)+,D1
00003718   4881                             EXT.W     D1
0000371A   b340                             EOR.W     D1,D0
0000371C   c07c 007f                        AND.W     #0x007f,D0
00003720   6708                             BEQ       B_372a
00003722   1006                             MOVE.B    D6,D0
00003724   6704                             BEQ       B_372a
00003726   4240                             CLR.W     D0
00003728   604e                             BRA       B_3778
0000372A   5347                             SUBQ.W    #1,D7
0000372C   3007                             MOVE.W    D7,D0
0000372E   66d4                             BNE       B_3704
00003730   102e 0011                        MOVE.B    (D_0011,A6),D0
00003734   673e                             BEQ       B_3774
00003736   0c15 003f                        CMP.B     #0x3f,(A5)
0000373A   6720                             BEQ       B_375c
0000373C   1015                             MOVE.B    (A5),D0
0000373E   4880                             EXT.W     D0
00003740   1214                             MOVE.B    (A4),D1
00003742   4881                             EXT.W     D1
00003744   b340                             EOR.W     D1,D0
00003746   2279 0000 5d98                   MOVE      A_00005d98,A1
0000374C   1229 0004                        MOVE.B    (D_0004,A1),D1
00003750   4881                             EXT.W     D1
00003752   4641                             NOT.W     D1
00003754   c041                             AND.W     D1,D0
00003756   6704                             BEQ       B_375c
00003758   4240                             CLR.W     D0
0000375A   601c                             BRA       B_3778
0000375C   548d                             ADDQ      #2,A5
0000375E   548c                             ADDQ      #2,A4
00003760   1015                             MOVE.B    (A5),D0
00003762   4880                             EXT.W     D0
00003764   1214                             MOVE.B    (A4),D1
00003766   4881                             EXT.W     D1
00003768   b340                             EOR.W     D1,D0
0000376A   c07c 003f                        AND.W     #0x003f,D0
0000376E   6704                             BEQ       B_3774
00003770   4240                             CLR.W     D0
00003772   6004                             BRA       B_3778
00003774   303c 0001                        MOVE.W    #0x0001,D0
00003778   4a9f                             TST       (A7)+
0000377A   4cdf 30c0                        MOVEM     (A7)+,REGS D67A45
0000377E   4e5e                             UNLK      a6
00003780   4e75                             RTS
00003782   4e56 0000                        LINK      A6,0x0
00003786   48e7 0704                        MOVEM     REGS D5-7A5,-(A7)
0000378A   2a6e 0008                        MOVE      (D_0008,A6),A5
0000378E   3ebc 0001                        MOVE.W    #0x0001,(A7)
00003792   2f2e 000c                        MOVE      (D_000c,A6),-(A7)
00003796   2f0d                             MOVE      A5,-(A7)
00003798   6100 ff56                        BSR       B_136f0
0000379C   508f                             ADDQ      #8,A7
0000379E   4880                             EXT.W     D0
000037A0   1c00                             MOVE.B    D0,D6
000037A2   6732                             BEQ       B_37d6
000037A4   1e2d 000c                        MOVE.B    (D_000c,A5),D7
000037A8   3ebc 0020                        MOVE.W    #0x0020,(A7)
000037AC   2f0d                             MOVE      A5,-(A7)
000037AE   2f2e 000c                        MOVE      (D_000c,A6),-(A7)
000037B2   6100 ff12                        BSR       B_136c6
000037B6   508f                             ADDQ      #8,A7
000037B8   1b47 000c                        MOVE.B    D7,(D_000c,A5)
000037BC   002d 0080 000e                   OR.B      #0x80,(D_000e,A5)
000037C2   303c 0001                        MOVE.W    #0x0001,D0
000037C6   1239 0000 5d8c                   MOVE.B    A_00005d8c,D1
000037CC   4881                             EXT.W     D1
000037CE   e360                             ASL.W     D1,D0
000037D0   8179 0000 5e74                   OR.W      D0,A_00005e74
000037D6   1006                             MOVE.B    D6,D0
000037D8   4880                             EXT.W     D0
000037DA   4a9f                             TST       (A7)+
000037DC   4cdf 20c0                        MOVEM     (A7)+,REGS D67A5
000037E0   4e5e                             UNLK      a6
000037E2   4e75                             RTS
000037E4   4e56 ffee                        LINK      A6,0xffee
000037E8   48e7 0300                        MOVEM     REGS D67,-(A7)
000037EC   1d7c 0003 ffee                   MOVE.B    #0x0003,(D_ffee,A6)
000037F2   600e                             BRA       B_3802
000037F4   3ebc 0001                        MOVE.W    #0x0001,(A7)
000037F8   4eb9 0000 2ff6                   JSR       A_00002ff6
000037FE   4a40                             TST.W     D0
00003800   6612                             BNE       B_3814
00003802   2e8e                             MOVE      A6,(A7)
00003804   0697 ffff ffee                   ADD       #0xffffffee,(A7)
0000380A   4eb9 0000 4780                   JSR       A_00004780
00003810   3e00                             MOVE.W    D0,D7
00003812   66e0                             BNE       B_37f4
00003814   3007                             MOVE.W    D7,D0
00003816   4a9f                             TST       (A7)+
00003818   4cdf 0080                        MOVEM     (A7)+,REGS D7
0000381C   4e5e                             UNLK      a6
0000381E   4e75                             RTS
00003820   4e56 fffc                        LINK      A6,0xfffc
00003824   48e7 0f1c                        MOVEM     REGS D4-7A3-5,-(A7)
00003828   2a6e 0008                        MOVE      (D_0008,A6),A5
0000382C   286e 000c                        MOVE      (D_000c,A6),A4
00003830   3ebc 0001                        MOVE.W    #0x0001,(A7)
00003834   2f0c                             MOVE      A4,-(A7)
00003836   2f0d                             MOVE      A5,-(A7)
00003838   6100 feb6                        BSR       B_136f0
0000383C   508f                             ADDQ      #8,A7
0000383E   4a40                             TST.W     D0
00003840   6700 0126                        BEQ.L     B_3968
00003844   47ed 0010                        LEA       (D_0010,A5),A3
00003848   41ec 0010                        LEA       (D_0010,A4),A0
0000384C   2d48 fffc                        MOVE      A0,(D_fffc,A6)
00003850   2079 0000 5d98                   MOVE      A_00005d98,A0
00003856   0c68 0100 0006                   CMP.W     #0x100,(D_0006,A0)
0000385C   643c                             BCC       B_389a
0000385E   3e3c 0010                        MOVE.W    #0x0010,D7
00003862   206e fffc                        MOVE      (D_fffc,A6),A0
00003866   4a10                             TST.B     (A0)
00003868   671c                             BEQ       B_3886
0000386A   1013                             MOVE.B    (A3),D0
0000386C   6710                             BEQ       B_387e
0000386E   206e fffc                        MOVE      (D_fffc,A6),A0
00003872   1010                             MOVE.B    (A0),D0
00003874   4880                             EXT.W     D0
00003876   b013                             CMP.B     (A3),D0
00003878   6600 00d4                        BNE.L     B_394e
0000387C   6006                             BRA       B_3884
0000387E   206e fffc                        MOVE      (D_fffc,A6),A0
00003882   1690                             MOVE.B    (A0),(A3)
00003884   6006                             BRA       B_388c
00003886   206e fffc                        MOVE      (D_fffc,A6),A0
0000388A   1093                             MOVE.B    (A3),(A0)
0000388C   528b                             ADDQ      #1,A3
0000388E   52ae fffc                        ADDQ      #1,(D_fffc,A6)
00003892   5347                             SUBQ.W    #1,D7
00003894   3007                             MOVE.W    D7,D0
00003896   66ca                             BNE       B_3862
00003898   6038                             BRA       B_38d2
0000389A   3e3c 0008                        MOVE.W    #0x0008,D7
0000389E   206e fffc                        MOVE      (D_fffc,A6),A0
000038A2   4a50                             TST.W     (A0)
000038A4   671a                             BEQ       B_38c0
000038A6   3013                             MOVE.W    (A3),D0
000038A8   670e                             BEQ       B_38b8
000038AA   206e fffc                        MOVE      (D_fffc,A6),A0
000038AE   3010                             MOVE.W    (A0),D0
000038B0   b053                             CMP.W     (A3),D0
000038B2   6600 009a                        BNE.L     B_394e
000038B6   6006                             BRA       B_38be
000038B8   206e fffc                        MOVE      (D_fffc,A6),A0
000038BC   3690                             MOVE.W    (A0),(A3)
000038BE   6006                             BRA       B_38c6
000038C0   206e fffc                        MOVE      (D_fffc,A6),A0
000038C4   3093                             MOVE.W    (A3),(A0)
000038C6   548b                             ADDQ      #2,A3
000038C8   54ae fffc                        ADDQ      #2,(D_fffc,A6)
000038CC   5347                             SUBQ.W    #1,D7
000038CE   3007                             MOVE.W    D7,D0
000038D0   66cc                             BNE       B_389e
000038D2   2e8d                             MOVE      A5,(A7)
000038D4   4eb9 0000 406a                   JSR       A_0000406a
000038DA   3c00                             MOVE.W    D0,D6
000038DC   4240                             CLR.W     D0
000038DE   102c 000c                        MOVE.B    (D_000c,A4),D0
000038E2   3a00                             MOVE.W    D0,D5
000038E4   ca7c 001f                        AND.W     #0x001f,D5
000038E8   bc45                             CMP.W     D5,D6
000038EA   621c                             BHI       B_3908
000038EC   bc45                             CMP.W     D5,D6
000038EE   6628                             BNE       B_3918
000038F0   4240                             CLR.W     D0
000038F2   102d 000f                        MOVE.B    (D_000f,A5),D0
000038F6   c07c 00ff                        AND.W     #0x00ff,D0
000038FA   4241                             CLR.W     D1
000038FC   122c 000f                        MOVE.B    (D_000f,A4),D1
00003900   c27c 00ff                        AND.W     #0x00ff,D1
00003904   b041                             CMP.W     D1,D0
00003906   6310                             BLS       B_3918
00003908   196d 000f 000f                   MOVE.B    (D_000f,A5),(D_000f,A4)
0000390E   3006                             MOVE.W    D6,D0
00003910   c07c 00ff                        AND.W     #0x00ff,D0
00003914   1940 000c                        MOVE.B    D0,(D_000c,A4)
00003918   196d 000d 000d                   MOVE.B    (D_000d,A5),(D_000d,A4)
0000391E   082c 0007 0009                   BTST      #7,(D_0009,A4)
00003924   670e                             BEQ       B_3934
00003926   3eae 0010                        MOVE.W    (D_0010,A6),(A7)
0000392A   2f0d                             MOVE      A5,-(A7)
0000392C   4eb9 0000 2f00                   JSR       A_00002f00
00003932   588f                             ADDQ      #4,A7
00003934   022c 007f 000b                   AND.B     #0x7f,(D_000b,A4)
0000393A   302e 0010                        MOVE.W    (D_0010,A6),D0
0000393E   e440                             ASR.W     #2,D0
00003940   3e80                             MOVE.W    D0,(A7)
00003942   4eb9 0000 31f8                   JSR       A_000031f8
00003948   303c 0001                        MOVE.W    #0x0001,D0
0000394C   601c                             BRA       B_396a
0000394E   303c 0001                        MOVE.W    #0x0001,D0
00003952   1239 0000 5d8c                   MOVE.B    A_00005d8c,D1
00003958   4881                             EXT.W     D1
0000395A   e360                             ASL.W     D1,D0
0000395C   8179 0000 60b8                   OR.W      D0,A_000060b8
00003962   4240                             CLR.W     D0
00003964   6004                             BRA       B_396a
00003966   6002                             BRA       B_396a
00003968   4240                             CLR.W     D0
0000396A   4a9f                             TST       (A7)+
0000396C   4cdf 38e0                        MOVEM     (A7)+,REGS D5-7A3-5
00003970   4e5e                             UNLK      a6
00003972   4e75                             RTS
00003974   4e56 fffc                        LINK      A6,0xfffc
00003978   6100 fe6a                        BSR       B_137e4
0000397C   206e 0008                        MOVE      (D_0008,A6),A0
00003980   0828 0007 000e                   BTST      #7,(D_000e,A0)
00003986   6704                             BEQ       B_398c
00003988   4240                             CLR.W     D0
0000398A   6014                             BRA       B_39a0
0000398C   4257                             CLR.W     (A7)
0000398E   2f2e 0008                        MOVE      (D_0008,A6),-(A7)
00003992   2f3c 0000 3820                   MOVE      #0x00003820,-(A7)
00003998   4eb9 0000 3286                   JSR       A_00003286
0000399E   508f                             ADDQ      #8,A7
000039A0   4e5e                             UNLK      a6
000039A2   4e75                             RTS
000039A4   4e56 fffc                        LINK      A6,0xfffc
000039A8   303c 0001                        MOVE.W    #0x0001,D0
000039AC   4e5e                             UNLK      a6
000039AE   4e75                             RTS
000039B0   4e56 fffc                        LINK      A6,0xfffc
000039B4   3ebc 0001                        MOVE.W    #0x0001,(A7)
000039B8   2f2e 000c                        MOVE      (D_000c,A6),-(A7)
000039BC   2f2e 0008                        MOVE      (D_0008,A6),-(A7)
000039C0   6100 fd2e                        BSR       B_136f0
000039C4   508f                             ADDQ      #8,A7
000039C6   4e5e                             UNLK      a6
000039C8   4e75                             RTS
000039CA   4e56 0000                        LINK      A6,0x0
000039CE   48e7 0704                        MOVEM     REGS D5-7A5,-(A7)
000039D2   2a6e 0008                        MOVE      (D_0008,A6),A5
000039D6   3e2e 000c                        MOVE.W    (D_000c,A6),D7
000039DA   0c15 003f                        CMP.B     #0x3f,(A5)
000039DE   6624                             BNE       B_3a04
000039E0   1039 0000 5d8d                   MOVE.B    A_00005d8d,D0
000039E6   4880                             EXT.W     D0
000039E8   3e80                             MOVE.W    D0,(A7)
000039EA   6100 fb88                        BSR       B_13574
000039EE   3e87                             MOVE.W    D7,(A7)
000039F0   2f0d                             MOVE      A5,-(A7)
000039F2   2f3c 0000 39a4                   MOVE      #0x000039a4,-(A7)
000039F8   4eb9 0000 3286                   JSR       A_00003286
000039FE   508f                             ADDQ      #8,A7
00003A00   3c00                             MOVE.W    D0,D6
00003A02   602e                             BRA       B_3a32
00003A04   2eae 000e                        MOVE      (D_000e,A6),(A7)
00003A08   4eb9 0000 4732                   JSR       A_00004732
00003A0E   0c2d 003f 000c                   CMP.B     #0x3f,(D_000c,A5)
00003A14   6704                             BEQ       B_3a1a
00003A16   422d 000c                        CLR.B     (D_000c,A5)
00003A1A   422d 000e                        CLR.B     (D_000e,A5)
00003A1E   3e87                             MOVE.W    D7,(A7)
00003A20   2f0d                             MOVE      A5,-(A7)
00003A22   2f3c 0000 39b0                   MOVE      #0x000039b0,-(A7)
00003A28   4eb9 0000 3286                   JSR       A_00003286
00003A2E   508f                             ADDQ      #8,A7
00003A30   3c00                             MOVE.W    D0,D6
00003A32   3ebc 0080                        MOVE.W    #0x0080,(A7)
00003A36   2f39 0000 5d9e                   MOVE      A_00005d9e,-(A7)
00003A3C   2f39 0000 5d94                   MOVE      A_00005d94,-(A7)
00003A42   6100 fc82                        BSR       B_136c6
00003A46   508f                             ADDQ      #8,A7
00003A48   3006                             MOVE.W    D6,D0
00003A4A   4a9f                             TST       (A7)+
00003A4C   4cdf 20c0                        MOVEM     (A7)+,REGS D67A5
00003A50   4e5e                             UNLK      a6
00003A52   4e75                             RTS
00003A54   4e56 0000                        LINK      A6,0x0
00003A58   48e7 0f1c                        MOVEM     REGS D4-7A3-5,-(A7)
00003A5C   2a6e 0008                        MOVE      (D_0008,A6),A5
00003A60   286e 000c                        MOVE      (D_000c,A6),A4
00003A64   3e2e 0010                        MOVE.W    (D_0010,A6),D7
00003A68   0c14 00e5                        CMP.B     #0xe5,(A4)
00003A6C   6704                             BEQ       B_3a72
00003A6E   4240                             CLR.W     D0
00003A70   6004                             BRA       B_3a76
00003A72   303c 0001                        MOVE.W    #0x0001,D0
00003A76   4880                             EXT.W     D0
00003A78   1a00                             MOVE.B    D0,D5
00003A7A   6754                             BEQ       B_3ad0
00003A7C   47ed 000f                        LEA       (D_000f,A5),A3
00003A80   3c3c 0011                        MOVE.W    #0x0011,D6
00003A84   421b                             CLR.B     (A3)+
00003A86   5346                             SUBQ.W    #1,D6
00003A88   3006                             MOVE.W    D6,D0
00003A8A   66f8                             BNE       B_3a84
00003A8C   3ebc 0020                        MOVE.W    #0x0020,(A7)
00003A90   2f0c                             MOVE      A4,-(A7)
00003A92   2f0d                             MOVE      A5,-(A7)
00003A94   6100 fc30                        BSR       B_136c6
00003A98   508f                             ADDQ      #8,A7
00003A9A   3007                             MOVE.W    D7,D0
00003A9C   e440                             ASR.W     #2,D0
00003A9E   3e80                             MOVE.W    D0,(A7)
00003AA0   4eb9 0000 31f8                   JSR       A_000031f8
00003AA6   2079 0000 5d90                   MOVE      A_00005d90,A0
00003AAC   be68 0004                        CMP.W     (D_0004,A0),D7
00003AB0   630a                             BLS       B_3abc
00003AB2   2079 0000 5d90                   MOVE      A_00005d90,A0
00003AB8   3147 0004                        MOVE.W    D7,(D_0004,A0)
00003ABC   303c 0001                        MOVE.W    #0x0001,D0
00003AC0   1239 0000 5d8c                   MOVE.B    A_00005d8c,D1
00003AC6   4881                             EXT.W     D1
00003AC8   e360                             ASL.W     D1,D0
00003ACA   8179 0000 5e74                   OR.W      D0,A_00005e74
00003AD0   1005                             MOVE.B    D5,D0
00003AD2   4880                             EXT.W     D0
00003AD4   4a9f                             TST       (A7)+
00003AD6   4cdf 38e0                        MOVEM     (A7)+,REGS D5-7A3-5
00003ADA   4e5e                             UNLK      a6
00003ADC   4e75                             RTS
00003ADE   4e56 0000                        LINK      A6,0x0
00003AE2   48e7 0f0c                        MOVEM     REGS D4-7A45,-(A7)
00003AE6   2a6e 0008                        MOVE      (D_0008,A6),A5
00003AEA   286e 000c                        MOVE      (D_000c,A6),A4
00003AEE   3e2e 0010                        MOVE.W    (D_0010,A6),D7
00003AF2   4257                             CLR.W     (A7)
00003AF4   2f0c                             MOVE      A4,-(A7)
00003AF6   2f0d                             MOVE      A5,-(A7)
00003AF8   6100 fbf6                        BSR       B_136f0
00003AFC   508f                             ADDQ      #8,A7
00003AFE   4880                             EXT.W     D0
00003B00   1a00                             MOVE.B    D0,D5
00003B02   6770                             BEQ       B_3b74
00003B04   082c 0007 0009                   BTST      #7,(D_0009,A4)
00003B0A   670c                             BEQ       B_3b18
00003B0C   3e87                             MOVE.W    D7,(A7)
00003B0E   2f0d                             MOVE      A5,-(A7)
00003B10   4eb9 0000 2f00                   JSR       A_00002f00
00003B16   588f                             ADDQ      #4,A7
00003B18   18bc 00e5                        MOVE.B    #0x00e5,(A4)
00003B1C   3007                             MOVE.W    D7,D0
00003B1E   e440                             ASR.W     #2,D0
00003B20   3e80                             MOVE.W    D0,(A7)
00003B22   4eb9 0000 31f8                   JSR       A_000031f8
00003B28   2079 0000 5d98                   MOVE      A_00005d98,A0
00003B2E   0c68 0100 0006                   CMP.W     #0x100,(D_0006,A0)
00003B34   641e                             BCC       B_3b54
00003B36   3c3c 0010                        MOVE.W    #0x0010,D6
00003B3A   5346                             SUBQ.W    #1,D6
00003B3C   4240                             CLR.W     D0
00003B3E   1034 6010                        MOVE.B    (D_10,A4,D6.W),D0
00003B42   3e80                             MOVE.W    D0,(A7)
00003B44   0257 00ff                        AND.W     #0xff,(A7)
00003B48   4eb9 0000 340a                   JSR       A_0000340a
00003B4E   3006                             MOVE.W    D6,D0
00003B50   66e8                             BNE       B_3b3a
00003B52   6020                             BRA       B_3b74
00003B54   3c3c 0008                        MOVE.W    #0x0008,D6
00003B58   5346                             SUBQ.W    #1,D6
00003B5A   3046                             MOVE.W    D6,A0
00003B5C   d1c8                             ADDA      A0,A0
00003B5E   3eb4 8810                        MOVE.W    (D_10,A4,A0.L),(A7)
00003B62   4eb9 0000 2780                   JSR       A_00002780
00003B68   3e80                             MOVE.W    D0,(A7)
00003B6A   4eb9 0000 340a                   JSR       A_0000340a
00003B70   3006                             MOVE.W    D6,D0
00003B72   66e4                             BNE       B_3b58
00003B74   1005                             MOVE.B    D5,D0
00003B76   4880                             EXT.W     D0
00003B78   4a9f                             TST       (A7)+
00003B7A   4cdf 30e0                        MOVEM     (A7)+,REGS D5-7A45
00003B7E   4e5e                             UNLK      a6
00003B80   4e75                             RTS
00003B82   4e56 fffc                        LINK      A6,0xfffc
00003B86   48e7 0f1c                        MOVEM     REGS D4-7A3-5,-(A7)
00003B8A   2a6e 0008                        MOVE      (D_0008,A6),A5
00003B8E   286e 000c                        MOVE      (D_000c,A6),A4
00003B92   3e2e 0010                        MOVE.W    (D_0010,A6),D7
00003B96   4257                             CLR.W     (A7)
00003B98   2f0c                             MOVE      A4,-(A7)
00003B9A   2f0d                             MOVE      A5,-(A7)
00003B9C   6100 fb52                        BSR       B_136f0
00003BA0   508f                             ADDQ      #8,A7
00003BA2   4880                             EXT.W     D0
00003BA4   1a00                             MOVE.B    D0,D5
00003BA6   6748                             BEQ       B_3bf0
00003BA8   082c 0007 0009                   BTST      #7,(D_0009,A4)
00003BAE   670c                             BEQ       B_3bbc
00003BB0   3e87                             MOVE.W    D7,(A7)
00003BB2   2f0d                             MOVE      A5,-(A7)
00003BB4   4eb9 0000 2f00                   JSR       A_00002f00
00003BBA   588f                             ADDQ      #4,A7
00003BBC   47ed 0011                        LEA       (D_0011,A5),A3
00003BC0   41ec 0001                        LEA       (D_0001,A4),A0
00003BC4   2d48 fffc                        MOVE      A0,(D_fffc,A6)
00003BC8   3c3c 000b                        MOVE.W    #0x000b,D6
00003BCC   101b                             MOVE.B    (A3)+,D0
00003BCE   4880                             EXT.W     D0
00003BD0   c07c 007f                        AND.W     #0x007f,D0
00003BD4   226e fffc                        MOVE      (D_fffc,A6),A1
00003BD8   1280                             MOVE.B    D0,(A1)
00003BDA   52ae fffc                        ADDQ      #1,(D_fffc,A6)
00003BDE   5346                             SUBQ.W    #1,D6
00003BE0   3006                             MOVE.W    D6,D0
00003BE2   66e8                             BNE       B_3bcc
00003BE4   3007                             MOVE.W    D7,D0
00003BE6   e440                             ASR.W     #2,D0
00003BE8   3e80                             MOVE.W    D0,(A7)
00003BEA   4eb9 0000 31f8                   JSR       A_000031f8
00003BF0   1005                             MOVE.B    D5,D0
00003BF2   4880                             EXT.W     D0
00003BF4   4a9f                             TST       (A7)+
00003BF6   4cdf 38e0                        MOVEM     (A7)+,REGS D5-7A3-5
00003BFA   4e5e                             UNLK      a6
00003BFC   4e75                             RTS
00003BFE   4e56 0000                        LINK      A6,0x0
00003C02   48e7 070c                        MOVEM     REGS D5-7A45,-(A7)
00003C06   2a6e 0008                        MOVE      (D_0008,A6),A5
00003C0A   286e 000c                        MOVE      (D_000c,A6),A4
00003C0E   3e2e 0010                        MOVE.W    (D_0010,A6),D7
00003C12   4257                             CLR.W     (A7)
00003C14   2f0c                             MOVE      A4,-(A7)
00003C16   2f0d                             MOVE      A5,-(A7)
00003C18   6100 fad6                        BSR       B_136f0
00003C1C   508f                             ADDQ      #8,A7
00003C1E   4880                             EXT.W     D0
00003C20   1c00                             MOVE.B    D0,D6
00003C22   671e                             BEQ       B_3c42
00003C24   3ebc 000b                        MOVE.W    #0x000b,(A7)
00003C28   2f0c                             MOVE      A4,-(A7)
00003C2A   5297                             ADDQ      #1,(A7)
00003C2C   2f0d                             MOVE      A5,-(A7)
00003C2E   5297                             ADDQ      #1,(A7)
00003C30   6100 fa94                        BSR       B_136c6
00003C34   508f                             ADDQ      #8,A7
00003C36   3007                             MOVE.W    D7,D0
00003C38   e440                             ASR.W     #2,D0
00003C3A   3e80                             MOVE.W    D0,(A7)
00003C3C   4eb9 0000 31f8                   JSR       A_000031f8
00003C42   1006                             MOVE.B    D6,D0
00003C44   4880                             EXT.W     D0
00003C46   4a9f                             TST       (A7)+
00003C48   4cdf 30c0                        MOVEM     (A7)+,REGS D67A45
00003C4C   4e5e                             UNLK      a6
00003C4E   4e75                             RTS
00003C50   4e56 0000                        LINK      A6,0x0
00003C54   48e7 0104                        MOVEM     REGS D7A5,-(A7)
00003C58   2a6e 0008                        MOVE      (D_0008,A6),A5
00003C5C   102d 000c                        MOVE.B    (D_000c,A5),D0
00003C60   4880                             EXT.W     D0
00003C62   c07c 001f                        AND.W     #0x001f,D0
00003C66   48c0                             EXT.L     D0
00003C68   ef80                             ASL       #7,D0
00003C6A   122d 000e                        MOVE.B    (D_000e,A5),D1
00003C6E   4881                             EXT.W     D1
00003C70   c27c 003f                        AND.W     #0x003f,D1
00003C74   48c1                             EXT.L     D1
00003C76   740c                             MOVEQ     #0xc,D2
00003C78   e5a1                             ASL       D2,D1
00003C7A   8081                             OR        D1,D0
00003C7C   4a9f                             TST       (A7)+
00003C7E   4cdf 2000                        MOVEM     (A7)+,REGS A5
00003C82   4e5e                             UNLK      a6
00003C84   4e75                             RTS
00003C86   4e56 fffc                        LINK      A6,0xfffc
00003C8A   48e7 0104                        MOVEM     REGS D7A5,-(A7)
00003C8E   2a6e 0008                        MOVE      (D_0008,A6),A5
00003C92   2e8d                             MOVE      A5,(A7)
00003C94   61ba                             BSR.S     B_3c50
00003C96   4281                             CLR       D1
00003C98   4241                             CLR.W     D1
00003C9A   122d 0020                        MOVE.B    (D_0020,A5),D1
00003C9E   c27c 00ff                        AND.W     #0x00ff,D1
00003CA2   d081                             ADD       D1,D0
00003CA4   2d40 fffc                        MOVE      D0,(D_fffc,A6)
00003CA8   1b6e fffd 0021                   MOVE.B    (D_fffd,A6),(D_0021,A5)
00003CAE   1b6e fffe 0022                   MOVE.B    (D_fffe,A6),(D_0022,A5)
00003CB4   1b6e ffff 0023                   MOVE.B    (D_ffff,A6),(D_0023,A5)
00003CBA   4a9f                             TST       (A7)+
00003CBC   4cdf 2000                        MOVEM     (A7)+,REGS A5
00003CC0   4e5e                             UNLK      a6
00003CC2   4e75                             RTS
00003CC4   4e56 fffc                        LINK      A6,0xfffc
00003CC8   48e7 030c                        MOVEM     REGS D67A45,-(A7)
00003CCC   2a6e 0008                        MOVE      (D_0008,A6),A5
00003CD0   286e 000c                        MOVE      (D_000c,A6),A4
00003CD4   4257                             CLR.W     (A7)
00003CD6   2f0c                             MOVE      A4,-(A7)
00003CD8   2f0d                             MOVE      A5,-(A7)
00003CDA   6100 fa14                        BSR       B_136f0
00003CDE   508f                             ADDQ      #8,A7
00003CE0   4880                             EXT.W     D0
00003CE2   1e00                             MOVE.B    D0,D7
00003CE4   672a                             BEQ       B_3d10
00003CE6   2e8c                             MOVE      A4,(A7)
00003CE8   6100 ff66                        BSR       B_13c50
00003CEC   4281                             CLR       D1
00003CEE   4241                             CLR.W     D1
00003CF0   122c 000f                        MOVE.B    (D_000f,A4),D1
00003CF4   c27c 00ff                        AND.W     #0x00ff,D1
00003CF8   d081                             ADD       D1,D0
00003CFA   2d40 fffc                        MOVE      D0,(D_fffc,A6)
00003CFE   1b6e fffd 0021                   MOVE.B    (D_fffd,A6),(D_0021,A5)
00003D04   1b6e fffe 0022                   MOVE.B    (D_fffe,A6),(D_0022,A5)
00003D0A   1b6e ffff 0023                   MOVE.B    (D_ffff,A6),(D_0023,A5)
00003D10   1007                             MOVE.B    D7,D0
00003D12   4880                             EXT.W     D0
00003D14   4a9f                             TST       (A7)+
00003D16   4cdf 3080                        MOVEM     (A7)+,REGS D7A45
00003D1A   4e5e                             UNLK      a6
00003D1C   4e75                             RTS
00003D1E   4e56 fff8                        LINK      A6,0xfff8
00003D22   48e7 0304                        MOVEM     REGS D67A5,-(A7)
00003D26   2a6e 0008                        MOVE      (D_0008,A6),A5
00003D2A   42ae fffc                        CLR       (D_fffc,A6)
00003D2E   4247                             CLR.W     D7
00003D30   42ae fff8                        CLR       (D_fff8,A6)
00003D34   6026                             BRA       B_3d5c
00003D36   1d6d 0021 fff9                   MOVE.B    (D_0021,A5),(D_fff9,A6)
00003D3C   1d6d 0022 fffa                   MOVE.B    (D_0022,A5),(D_fffa,A6)
00003D42   1d6d 0023 fffb                   MOVE.B    (D_0023,A5),(D_fffb,A6)
00003D48   202e fff8                        MOVE      (D_fff8,A6),D0
00003D4C   b0ae fffc                        CMP       (D_fffc,A6),D0
00003D50   6f06                             BLE       B_3d58
00003D52   2d6e fff8 fffc                   MOVE      (D_fff8,A6),(D_fffc,A6)
00003D58   3e3c 0001                        MOVE.W    #0x0001,D7
00003D5C   3e87                             MOVE.W    D7,(A7)
00003D5E   2f0d                             MOVE      A5,-(A7)
00003D60   2f3c 0000 3cc4                   MOVE      #0x00003cc4,-(A7)
00003D66   4eb9 0000 3286                   JSR       A_00003286
00003D6C   508f                             ADDQ      #8,A7
00003D6E   b07c 00ff                        CMP.W     #0x00ff,D0
00003D72   65c2                             BCS       B_3d36
00003D74   1b6e fffd 0021                   MOVE.B    (D_fffd,A6),(D_0021,A5)
00003D7A   1b6e fffe 0022                   MOVE.B    (D_fffe,A6),(D_0022,A5)
00003D80   1b6e ffff 0023                   MOVE.B    (D_ffff,A6),(D_0023,A5)
00003D86   4a9f                             TST       (A7)+
00003D88   4cdf 2080                        MOVEM     (A7)+,REGS D7A5
00003D8C   4e5e                             UNLK      a6
00003D8E   4e75                             RTS
00003D90   4e56 fffc                        LINK      A6,0xfffc
00003D94   48e7 1f04                        MOVEM     REGS D3-7A5,-(A7)
00003D98   102e 0009                        MOVE.B    (D_0009,A6),D0
00003D9C   4880                             EXT.W     D0
00003D9E   3e80                             MOVE.W    D0,(A7)
00003DA0   6100 f7d2                        BSR       B_13574
00003DA4   4287                             CLR       D7
00003DA6   2079 0000 5d90                   MOVE      A_00005d90,A0
00003DAC   2a68 0016                        MOVE      (D_0016,A0),A5
00003DB0   4246                             CLR.W     D6
00003DB2   4244                             CLR.W     D4
00003DB4   602c                             BRA       B_3de2
00003DB6   3006                             MOVE.W    D6,D0
00003DB8   660a                             BNE       B_3dc4
00003DBA   3c3c 8000                        MOVE.W    #0x8000,D6
00003DBE   301d                             MOVE.W    (A5)+,D0
00003DC0   4640                             NOT.W     D0
00003DC2   3a00                             MOVE.W    D0,D5
00003DC4   3005                             MOVE.W    D5,D0
00003DC6   3206                             MOVE.W    D6,D1
00003DC8   c041                             AND.W     D1,D0
00003DCA   6712                             BEQ       B_3dde
00003DCC   2079 0000 5d98                   MOVE      A_00005d98,A0
00003DD2   1028 0003                        MOVE.B    (D_0003,A0),D0
00003DD6   4880                             EXT.W     D0
00003DD8   5240                             ADDQ.W    #1,D0
00003DDA   48c0                             EXT.L     D0
00003DDC   de80                             ADD       D0,D7
00003DDE   e24e                             LSR.W     #1,D6
00003DE0   5244                             ADDQ.W    #1,D4
00003DE2   2079 0000 5d98                   MOVE      A_00005d98,A0
00003DE8   b868 0006                        CMP.W     (D_0006,A0),D4
00003DEC   63c8                             BLS       B_3db6
00003DEE   2d47 fffc                        MOVE      D7,(D_fffc,A6)
00003DF2   3ebc 0004                        MOVE.W    #0x0004,(A7)
00003DF6   2f39 0000 5d9e                   MOVE      A_00005d9e,-(A7)
00003DFC   2f0e                             MOVE      A6,-(A7)
00003DFE   5997                             SUBQ      #4,(A7)
00003E00   6100 f8c4                        BSR       B_136c6
00003E04   508f                             ADDQ      #8,A7
00003E06   4a9f                             TST       (A7)+
00003E08   4cdf 20f0                        MOVEM     (A7)+,REGS D4-7A5
00003E0C   4e5e                             UNLK      a6
00003E0E   4e75                             RTS
00003E10   4e56 0000                        LINK      A6,0x0
00003E14   48e7 070c                        MOVEM     REGS D5-7A45,-(A7)
00003E18   2a6e 0008                        MOVE      (D_0008,A6),A5
00003E1C   2879 0000 5d98                   MOVE      A_00005d98,A4
00003E22   1c2c 0002                        MOVE.B    (D_0002,A4),D6
00003E26   4886                             EXT.W     D6
00003E28   1e2d 000c                        MOVE.B    (D_000c,A5),D7
00003E2C   4887                             EXT.W     D7
00003E2E   102c 0004                        MOVE.B    (D_0004,A4),D0
00003E32   4880                             EXT.W     D0
00003E34   ce40                             AND.W     D0,D7
00003E36   303c 0007                        MOVE.W    #0x0007,D0
00003E3A   9046                             SUB.W     D6,D0
00003E3C   e167                             ASL.W     D0,D7
00003E3E   3007                             MOVE.W    D7,D0
00003E40   4241                             CLR.W     D1
00003E42   122d 0020                        MOVE.B    (D_0020,A5),D1
00003E46   c27c 00ff                        AND.W     #0x00ff,D1
00003E4A   3406                             MOVE.W    D6,D2
00003E4C   e469                             LSR.W     D2,D1
00003E4E   d041                             ADD.W     D1,D0
00003E50   4a9f                             TST       (A7)+
00003E52   4cdf 30c0                        MOVEM     (A7)+,REGS D67A45
00003E56   4e5e                             UNLK      a6
00003E58   4e75                             RTS
00003E5A   4e56 0000                        LINK      A6,0x0
00003E5E   48e7 0304                        MOVEM     REGS D67A5,-(A7)
00003E62   2a6e 0008                        MOVE      (D_0008,A6),A5
00003E66   3e2e 000c                        MOVE.W    (D_000c,A6),D7
00003E6A   302e 000e                        MOVE.W    (D_000e,A6),D0
00003E6E   6712                             BEQ       B_3e82
00003E70   3047                             MOVE.W    D7,A0
00003E72   d1c8                             ADDA      A0,A0
00003E74   3eb5 8810                        MOVE.W    (D_10,A5,A0.L),(A7)
00003E78   4eb9 0000 2780                   JSR       A_00002780
00003E7E   600c                             BRA       B_3e8c
00003E80   600a                             BRA       B_3e8c
00003E82   4240                             CLR.W     D0
00003E84   1035 7010                        MOVE.B    (D_10,A5,D7.W),D0
00003E88   c07c 00ff                        AND.W     #0x00ff,D0
00003E8C   4a9f                             TST       (A7)+
00003E8E   4cdf 2080                        MOVEM     (A7)+,REGS D7A5
00003E92   4e5e                             UNLK      a6
00003E94   4e75                             RTS
00003E96   4e56 0000                        LINK      A6,0x0
00003E9A   48e7 0704                        MOVEM     REGS D5-7A5,-(A7)
00003E9E   2a6e 0008                        MOVE      (D_0008,A6),A5
00003EA2   3e2e 000c                        MOVE.W    (D_000c,A6),D7
00003EA6   3c2e 0010                        MOVE.W    (D_0010,A6),D6
00003EAA   022d 007f 000e                   AND.B     #0x7f,(D_000e,A5)
00003EB0   302e 000e                        MOVE.W    (D_000e,A6),D0
00003EB4   6718                             BEQ       B_3ece
00003EB6   3e86                             MOVE.W    D6,(A7)
00003EB8   4eb9 0000 2780                   JSR       A_00002780
00003EBE   3f00                             MOVE.W    D0,-(A7)
00003EC0   204d                             MOVE      A5,A0
00003EC2   3247                             MOVE.W    D7,A1
00003EC4   d3c9                             ADDA      A1,A1
00003EC6   d1c9                             ADDA      A1,A0
00003EC8   315f 0010                        MOVE.W    (A7)+,(D_0010,A0)
00003ECC   6010                             BRA       B_3ede
00003ECE   3006                             MOVE.W    D6,D0
00003ED0   c07c 00ff                        AND.W     #0x00ff,D0
00003ED4   224d                             MOVE      A5,A1
00003ED6   3447                             MOVE.W    D7,A2
00003ED8   d3ca                             ADDA      A2,A1
00003EDA   1340 0010                        MOVE.B    D0,(D_0010,A1)
00003EDE   4a9f                             TST       (A7)+
00003EE0   4cdf 20c0                        MOVEM     (A7)+,REGS D67A5
00003EE4   4e5e                             UNLK      a6
00003EE6   4e75                             RTS
00003EE8   4e56 0000                        LINK      A6,0x0
00003EEC   48e7 0704                        MOVEM     REGS D5-7A5,-(A7)
00003EF0   3e2e 000c                        MOVE.W    (D_000c,A6),D7
00003EF4   2a79 0000 5d98                   MOVE      A_00005d98,A5
00003EFA   4280                             CLR       D0
00003EFC   302e 0008                        MOVE.W    (D_0008,A6),D0
00003F00   2c00                             MOVE      D0,D6
00003F02   102d 0002                        MOVE.B    (D_0002,A5),D0
00003F06   4880                             EXT.W     D0
00003F08   e1a6                             ASL       D0,D6
00003F0A   102d 0003                        MOVE.B    (D_0003,A5),D0
00003F0E   4880                             EXT.W     D0
00003F10   122e 000b                        MOVE.B    (D_000b,A6),D1
00003F14   4881                             EXT.W     D1
00003F16   c041                             AND.W     D1,D0
00003F18   48c0                             EXT.L     D0
00003F1A   dc80                             ADD       D0,D6
00003F1C   3e87                             MOVE.W    D7,(A7)
00003F1E   2f39 0000 5d9e                   MOVE      A_00005d9e,-(A7)
00003F24   2f06                             MOVE      D6,-(A7)
00003F26   4eb9 0000 313e                   JSR       A_0000313e
00003F2C   508f                             ADDQ      #8,A7
00003F2E   4a9f                             TST       (A7)+
00003F30   4cdf 20c0                        MOVEM     (A7)+,REGS D67A5
00003F34   4e5e                             UNLK      a6
00003F36   4e75                             RTS
00003F38   4e56 0000                        LINK      A6,0x0
00003F3C   48e7 1f04                        MOVEM     REGS D3-7A5,-(A7)
00003F40   2a6e 0008                        MOVE      (D_0008,A6),A5
00003F44   302e 000e                        MOVE.W    (D_000e,A6),D0
00003F48   6734                             BEQ       B_3f7e
00003F4A   102d 0021                        MOVE.B    (D_0021,A5),D0
00003F4E   4880                             EXT.W     D0
00003F50   e940                             ASL.W     #4,D0
00003F52   122d 0022                        MOVE.B    (D_0022,A5),D1
00003F56   4881                             EXT.W     D1
00003F58   e841                             ASR.W     #4,D1
00003F5A   8041                             OR.W      D1,D0
00003F5C   4880                             EXT.W     D0
00003F5E   1e00                             MOVE.B    D0,D7
00003F60   102d 0022                        MOVE.B    (D_0022,A5),D0
00003F64   4880                             EXT.W     D0
00003F66   c07c 000f                        AND.W     #0x000f,D0
00003F6A   e340                             ASL.W     #1,D0
00003F6C   4880                             EXT.W     D0
00003F6E   1c00                             MOVE.B    D0,D6
00003F70   082d 0007 0023                   BTST      #7,(D_0023,A5)
00003F76   6704                             BEQ       B_3f7c
00003F78   8c3c 0001                        OR.B      #0x0001,D6
00003F7C   601a                             BRA       B_3f98
00003F7E   102d 000e                        MOVE.B    (D_000e,A5),D0
00003F82   4880                             EXT.W     D0
00003F84   c07c 003f                        AND.W     #0x003f,D0
00003F88   4880                             EXT.W     D0
00003F8A   1e00                             MOVE.B    D0,D7
00003F8C   102d 000c                        MOVE.B    (D_000c,A5),D0
00003F90   4880                             EXT.W     D0
00003F92   5240                             ADDQ.W    #1,D0
00003F94   4880                             EXT.W     D0
00003F96   1c00                             MOVE.B    D0,D6
00003F98   bc3c 0020                        CMP.B     #0x0020,D6
00003F9C   6d04                             BLT       B_3fa2
00003F9E   4206                             CLR.B     D6
00003FA0   5207                             ADDQ.B    #1,D7
00003FA2   be3c 0040                        CMP.B     #0x0040,D7
00003FA6   6d08                             BLT       B_3fb0
00003FA8   303c 0006                        MOVE.W    #0x0006,D0
00003FAC   6000 00b2                        BRA.L     B_4060
00003FB0   1007                             MOVE.B    D7,D0
00003FB2   4880                             EXT.W     D0
00003FB4   122d 000e                        MOVE.B    (D_000e,A5),D1
00003FB8   4881                             EXT.W     D1
00003FBA   c27c 003f                        AND.W     #0x003f,D1
00003FBE   b041                             CMP.W     D1,D0
00003FC0   662c                             BNE       B_3fee
00003FC2   1006                             MOVE.B    D6,D0
00003FC4   4880                             EXT.W     D0
00003FC6   122d 000c                        MOVE.B    (D_000c,A5),D1
00003FCA   4881                             EXT.W     D1
00003FCC   b340                             EOR.W     D1,D0
00003FCE   2279 0000 5d98                   MOVE      A_00005d98,A1
00003FD4   1229 0004                        MOVE.B    (D_0004,A1),D1
00003FD8   4881                             EXT.W     D1
00003FDA   4641                             NOT.W     D1
00003FDC   c041                             AND.W     D1,D0
00003FDE   c07c 001f                        AND.W     #0x001f,D0
00003FE2   660a                             BNE       B_3fee
00003FE4   1b46 000c                        MOVE.B    D6,(D_000c,A5)
00003FE8   4240                             CLR.W     D0
00003FEA   6000 0074                        BRA.L     B_4060
00003FEE   2e8d                             MOVE      A5,(A7)
00003FF0   4eb9 0000 3974                   JSR       A_00003974
00003FF6   b07c 00ff                        CMP.W     #0x00ff,D0
00003FFA   6506                             BCS       B_4002
00003FFC   303c 0003                        MOVE.W    #0x0003,D0
00004000   605e                             BRA       B_4060
00004002   1a2d 000e                        MOVE.B    (D_000e,A5),D5
00004006   182d 000c                        MOVE.B    (D_000c,A5),D4
0000400A   1b47 000e                        MOVE.B    D7,(D_000e,A5)
0000400E   1b46 000c                        MOVE.B    D6,(D_000c,A5)
00004012   4257                             CLR.W     (A7)
00004014   2f0d                             MOVE      A5,-(A7)
00004016   2f3c 0000 3782                   MOVE      #0x00003782,-(A7)
0000401C   4eb9 0000 3286                   JSR       A_00003286
00004022   508f                             ADDQ      #8,A7
00004024   b07c 00ff                        CMP.W     #0x00ff,D0
00004028   6534                             BCS       B_405e
0000402A   102e 000d                        MOVE.B    (D_000d,A6),D0
0000402E   670e                             BEQ       B_403e
00004030   1b45 000e                        MOVE.B    D5,(D_000e,A5)
00004034   1b44 000c                        MOVE.B    D4,(D_000c,A5)
00004038   303c 0004                        MOVE.W    #0x0004,D0
0000403C   6022                             BRA       B_4060
0000403E   3ebc 0008                        MOVE.W    #0x0008,(A7)
00004042   2f0d                             MOVE      A5,-(A7)
00004044   2f3c 0000 3a54                   MOVE      #0x00003a54,-(A7)
0000404A   4eb9 0000 3286                   JSR       A_00003286
00004050   508f                             ADDQ      #8,A7
00004052   b07c 00ff                        CMP.W     #0x00ff,D0
00004056   6506                             BCS       B_405e
00004058   303c 0005                        MOVE.W    #0x0005,D0
0000405C   6002                             BRA       B_4060
0000405E   4240                             CLR.W     D0
00004060   4a9f                             TST       (A7)+
00004062   4cdf 20f0                        MOVEM     (A7)+,REGS D4-7A5
00004066   4e5e                             UNLK      a6
00004068   4e75                             RTS
0000406A   4e56 0000                        LINK      A6,0x0
0000406E   48e7 030c                        MOVEM     REGS D67A45,-(A7)
00004072   2a6e 0008                        MOVE      (D_0008,A6),A5
00004076   3e3c 000f                        MOVE.W    #0x000f,D7
0000407A   49ed 0020                        LEA       (D_0020,A5),A4
0000407E   1024                             MOVE.B    -(A4),D0
00004080   6606                             BNE       B_4088
00004082   5347                             SUBQ.W    #1,D7
00004084   3007                             MOVE.W    D7,D0
00004086   66f6                             BNE       B_407e
00004088   2079 0000 5d98                   MOVE      A_00005d98,A0
0000408E   0c68 00ff 0006                   CMP.W     #0xff,(D_0006,A0)
00004094   6302                             BLS       B_4098
00004096   e24f                             LSR.W     #1,D7
00004098   303c 0007                        MOVE.W    #0x0007,D0
0000409C   2279 0000 5d98                   MOVE      A_00005d98,A1
000040A2   1229 0002                        MOVE.B    (D_0002,A1),D1
000040A6   4881                             EXT.W     D1
000040A8   9041                             SUB.W     D1,D0
000040AA   e06f                             LSR.W     D0,D7
000040AC   3007                             MOVE.W    D7,D0
000040AE   2279 0000 5d98                   MOVE      A_00005d98,A1
000040B4   1229 0004                        MOVE.B    (D_0004,A1),D1
000040B8   4881                             EXT.W     D1
000040BA   4641                             NOT.W     D1
000040BC   142d 000c                        MOVE.B    (D_000c,A5),D2
000040C0   4882                             EXT.W     D2
000040C2   c242                             AND.W     D2,D1
000040C4   c27c 001f                        AND.W     #0x001f,D1
000040C8   8041                             OR.W      D1,D0
000040CA   4a9f                             TST       (A7)+
000040CC   4cdf 3080                        MOVEM     (A7)+,REGS D7A45
000040D0   4e5e                             UNLK      a6
000040D2   4e75                             RTS
000040D4   4e56 0000                        LINK      A6,0x0
000040D8   48e7 0304                        MOVEM     REGS D67A5,-(A7)
000040DC   2a6e 0008                        MOVE      (D_0008,A6),A5
000040E0   2e8d                             MOVE      A5,(A7)
000040E2   6186                             BSR.S     B_406a
000040E4   3e00                             MOVE.W    D0,D7
000040E6   102d 000c                        MOVE.B    (D_000c,A5),D0
000040EA   4880                             EXT.W     D0
000040EC   be40                             CMP.W     D0,D7
000040EE   660e                             BNE       B_40fe
000040F0   4240                             CLR.W     D0
000040F2   102d 000f                        MOVE.B    (D_000f,A5),D0
000040F6   c07c 00ff                        AND.W     #0x00ff,D0
000040FA   6016                             BRA       B_4112
000040FC   6014                             BRA       B_4112
000040FE   102d 000c                        MOVE.B    (D_000c,A5),D0
00004102   4880                             EXT.W     D0
00004104   be40                             CMP.W     D0,D7
00004106   6308                             BLS       B_4110
00004108   303c 0080                        MOVE.W    #0x0080,D0
0000410C   6004                             BRA       B_4112
0000410E   6002                             BRA       B_4112
00004110   4240                             CLR.W     D0
00004112   4a9f                             TST       (A7)+
00004114   4cdf 2080                        MOVEM     (A7)+,REGS D7A5
00004118   4e5e                             UNLK      a6
0000411A   4e75                             RTS
0000411C   4e56 fffc                        LINK      A6,0xfffc
00004120   48e7 3f0c                        MOVEM     REGS D2-7A45,-(A7)
00004124   2a6e 0008                        MOVE      (D_0008,A6),A5
00004128   1e2e 000d                        MOVE.B    (D_000d,A6),D7
0000412C   2079 0000 5d98                   MOVE      A_00005d98,A0
00004132   3628 0006                        MOVE.W    (D_0006,A0),D3
00004136   c67c ff00                        AND.W     #0xff00,D3
0000413A   1007                             MOVE.B    D7,D0
0000413C   6620                             BNE       B_415e
0000413E   082d 0007 0009                   BTST      #7,(D_0009,A5)
00004144   6718                             BEQ       B_415e
00004146   2079 0000 5d94                   MOVE      A_00005d94,A0
0000414C   2068 000e                        MOVE      (D_000e,A0),A0
00004150   3ea8 0008                        MOVE.W    (D_0008,A0),(A7)
00004154   2f0d                             MOVE      A5,-(A7)
00004156   4eb9 0000 2f00                   JSR       A_00002f00
0000415C   588f                             ADDQ      #4,A7
0000415E   302e 000e                        MOVE.W    (D_000e,A6),D0
00004162   6732                             BEQ       B_4196
00004164   3ebc 0001                        MOVE.W    #0x0001,(A7)
00004168   1007                             MOVE.B    D7,D0
0000416A   4880                             EXT.W     D0
0000416C   3f00                             MOVE.W    D0,-(A7)
0000416E   2f0d                             MOVE      A5,-(A7)
00004170   6100 fdc6                        BSR       B_13f38
00004174   5c8f                             ADDQ      #6,A7
00004176   3d40 fffe                        MOVE.W    D0,(D_fffe,A6)
0000417A   6708                             BEQ       B_4184
0000417C   302e fffe                        MOVE.W    (D_fffe,A6),D0
00004180   6000 017a                        BRA.L     B_42fc
00004184   102d 0023                        MOVE.B    (D_0023,A5),D0
00004188   4880                             EXT.W     D0
0000418A   c07c 007f                        AND.W     #0x007f,D0
0000418E   4880                             EXT.W     D0
00004190   1b40 0020                        MOVE.B    D0,(D_0020,A5)
00004194   6028                             BRA       B_41be
00004196   0c2d 0080 0020                   CMP.B     #0x80,(D_0020,A5)
0000419C   6620                             BNE       B_41be
0000419E   4257                             CLR.W     (A7)
000041A0   1007                             MOVE.B    D7,D0
000041A2   4880                             EXT.W     D0
000041A4   3f00                             MOVE.W    D0,-(A7)
000041A6   2f0d                             MOVE      A5,-(A7)
000041A8   6100 fd8e                        BSR       B_13f38
000041AC   5c8f                             ADDQ      #6,A7
000041AE   4a40                             TST.W     D0
000041B0   6708                             BEQ       B_41ba
000041B2   303c 0001                        MOVE.W    #0x0001,D0
000041B6   6000 0144                        BRA.L     B_42fc
000041BA   422d 0020                        CLR.B     (D_0020,A5)
000041BE   1d6d 000f fffc                   MOVE.B    (D_000f,A5),(D_fffc,A6)
000041C4   2e8d                             MOVE      A5,(A7)
000041C6   6100 ff0c                        BSR       B_140d4
000041CA   4241                             CLR.W     D1
000041CC   122d 0020                        MOVE.B    (D_0020,A5),D1
000041D0   c27c 00ff                        AND.W     #0x00ff,D1
000041D4   b041                             CMP.W     D1,D0
000041D6   6220                             BHI       B_41f8
000041D8   1007                             MOVE.B    D7,D0
000041DA   6708                             BEQ       B_41e4
000041DC   303c 0001                        MOVE.W    #0x0001,D0
000041E0   6000 011a                        BRA.L     B_42fc
000041E4   022d 007f 000e                   AND.B     #0x7f,(D_000e,A5)
000041EA   102d 0020                        MOVE.B    (D_0020,A5),D0
000041EE   4880                             EXT.W     D0
000041F0   5240                             ADDQ.W    #1,D0
000041F2   4880                             EXT.W     D0
000041F4   1d40 fffc                        MOVE.B    D0,(D_fffc,A6)
000041F8   2e8d                             MOVE      A5,(A7)
000041FA   6100 fc14                        BSR       B_13e10
000041FE   3a00                             MOVE.W    D0,D5
00004200   3e83                             MOVE.W    D3,(A7)
00004202   3f05                             MOVE.W    D5,-(A7)
00004204   2f0d                             MOVE      A5,-(A7)
00004206   6100 fc52                        BSR       B_13e5a
0000420A   5c8f                             ADDQ      #6,A7
0000420C   3c00                             MOVE.W    D0,D6
0000420E   3006                             MOVE.W    D6,D0
00004210   6712                             BEQ       B_4224
00004212   1007                             MOVE.B    D7,D0
00004214   6704                             BEQ       B_421a
00004216   4240                             CLR.W     D0
00004218   6004                             BRA       B_421e
0000421A   303c 0001                        MOVE.W    #0x0001,D0
0000421E   3800                             MOVE.W    D0,D4
00004220   6000 00aa                        BRA.L     B_42cc
00004224   1007                             MOVE.B    D7,D0
00004226   6708                             BEQ       B_4230
00004228   303c 0001                        MOVE.W    #0x0001,D0
0000422C   6000 00ce                        BRA.L     B_42fc
00004230   3e83                             MOVE.W    D3,(A7)
00004232   3005                             MOVE.W    D5,D0
00004234   6706                             BEQ       B_423c
00004236   3f05                             MOVE.W    D5,-(A7)
00004238   5357                             SUBQ.W    #1,(A7)
0000423A   6002                             BRA       B_423e
0000423C   4267                             CLR.W     -(A7)
0000423E   2f0d                             MOVE      A5,-(A7)
00004240   6100 fc18                        BSR       B_13e5a
00004244   5c8f                             ADDQ      #6,A7
00004246   3e80                             MOVE.W    D0,(A7)
00004248   4eb9 0000 3498                   JSR       A_00003498
0000424E   3c00                             MOVE.W    D0,D6
00004250   bc7c ffff                        CMP.W     #0xffff,D6
00004254   6608                             BNE       B_425e
00004256   303c 0002                        MOVE.W    #0x0002,D0
0000425A   6000 00a0                        BRA.L     B_42fc
0000425E   3e86                             MOVE.W    D6,(A7)
00004260   3f03                             MOVE.W    D3,-(A7)
00004262   3f05                             MOVE.W    D5,-(A7)
00004264   2f0d                             MOVE      A5,-(A7)
00004266   6100 fc2e                        BSR       B_13e96
0000426A   508f                             ADDQ      #8,A7
0000426C   383c 0003                        MOVE.W    #0x0003,D4
00004270   0c6e 0002 000e                   CMP.W     #0x2,(D_000e,A6)
00004276   6654                             BNE       B_42cc
00004278   2879 0000 5d9e                   MOVE      A_00005d9e,A4
0000427E   23f9 0000 5d94 0000 5d9e         MOVE      A_00005d94,A_00005d9e
00004288   3a3c 0080                        MOVE.W    #0x0080,D5
0000428C   5345                             SUBQ.W    #1,D5
0000428E   3045                             MOVE.W    D5,A0
00004290   d1f9 0000 5d9e                   ADDA      A_00005d9e,A0
00004296   4210                             CLR.B     (A0)
00004298   3005                             MOVE.W    D5,D0
0000429A   66f0                             BNE       B_428c
0000429C   4245                             CLR.W     D5
0000429E   6016                             BRA       B_42b6
000042A0   3e84                             MOVE.W    D4,(A7)
000042A2   3005                             MOVE.W    D5,D0
000042A4   4880                             EXT.W     D0
000042A6   3f00                             MOVE.W    D0,-(A7)
000042A8   3f06                             MOVE.W    D6,-(A7)
000042AA   6100 fc3c                        BSR       B_13ee8
000042AE   588f                             ADDQ      #4,A7
000042B0   383c 0001                        MOVE.W    #0x0001,D4
000042B4   5245                             ADDQ.W    #1,D5
000042B6   2079 0000 5d98                   MOVE      A_00005d98,A0
000042BC   1028 0003                        MOVE.B    (D_0003,A0),D0
000042C0   4880                             EXT.W     D0
000042C2   ba40                             CMP.W     D0,D5
000042C4   6fda                             BLE       B_42a0
000042C6   23cc 0000 5d9e                   MOVE      A4,A_00005d9e
000042CC   3e84                             MOVE.W    D4,(A7)
000042CE   102d 0020                        MOVE.B    (D_0020,A5),D0
000042D2   4880                             EXT.W     D0
000042D4   3f00                             MOVE.W    D0,-(A7)
000042D6   3f06                             MOVE.W    D6,-(A7)
000042D8   6100 fc0e                        BSR       B_13ee8
000042DC   588f                             ADDQ      #4,A7
000042DE   3d40 fffe                        MOVE.W    D0,(D_fffe,A6)
000042E2   302e fffe                        MOVE.W    (D_fffe,A6),D0
000042E6   6610                             BNE       B_42f8
000042E8   1b6e fffc 000f                   MOVE.B    (D_fffc,A6),(D_000f,A5)
000042EE   302e 000e                        MOVE.W    (D_000e,A6),D0
000042F2   6604                             BNE       B_42f8
000042F4   522d 0020                        ADDQ.B    #1,(D_0020,A5)
000042F8   302e fffe                        MOVE.W    (D_fffe,A6),D0
000042FC   4a9f                             TST       (A7)+
000042FE   4cdf 30f8                        MOVEM     (A7)+,REGS D3-7A45
00004302   4e5e                             UNLK      a6
00004304   4e75                             RTS
00004306   4e56 fffa                        LINK      A6,0xfffa
0000430A   48e7 0f04                        MOVEM     REGS D4-7A5,-(A7)
0000430E   3e2e 0008                        MOVE.W    (D_0008,A6),D7
00004312   3c2e 000a                        MOVE.W    (D_000a,A6),D6
00004316   2a6e 000c                        MOVE      (D_000c,A6),A5
0000431A   422e fffb                        CLR.B     (D_fffb,A6)
0000431E   2d4d fffc                        MOVE      A5,(D_fffc,A6)
00004322   4245                             CLR.W     D5
00004324   3007                             MOVE.W    D7,D0
00004326   6000 03e0                        BRA.L     B_4708
0000432A   4257                             CLR.W     (A7)
0000432C   4eb9 0000 2d8a                   JSR       A_00002d8a
00004332   4eb9 0000 299c                   JSR       A_0000299c
00004338   6000 03ee                        BRA.L     B_4728
0000433C   3006                             MOVE.W    D6,D0
0000433E   c07c 00ff                        AND.W     #0x00ff,D0
00004342   3e80                             MOVE.W    D0,(A7)
00004344   4eb9 0000 28c6                   JSR       A_000028c6
0000434A   6000 03d0                        BRA.L     B_471c
0000434E   3ebc 0007                        MOVE.W    #0x0007,(A7)
00004352   4eb9 0000 2770                   JSR       A_00002770
00004358   6000 03ce                        BRA.L     B_4728
0000435C   3006                             MOVE.W    D6,D0
0000435E   c07c 00ff                        AND.W     #0x00ff,D0
00004362   3e80                             MOVE.W    D0,(A7)
00004364   3f3c 0006                        MOVE.W    #0x0006,-(A7)
00004368   4eb9 0000 276c                   JSR       A_0000276c
0000436E   548f                             ADDQ      #2,A7
00004370   6000 03aa                        BRA.L     B_471c
00004374   3006                             MOVE.W    D6,D0
00004376   c07c 00ff                        AND.W     #0x00ff,D0
0000437A   3e80                             MOVE.W    D0,(A7)
0000437C   3f3c 0005                        MOVE.W    #0x0005,-(A7)
00004380   4eb9 0000 276c                   JSR       A_0000276c
00004386   548f                             ADDQ      #2,A7
00004388   6000 0392                        BRA.L     B_471c
0000438C   3e86                             MOVE.W    D6,(A7)
0000438E   4eb9 0000 29d8                   JSR       A_000029d8
00004394   6000 0392                        BRA.L     B_4728
00004398   3ebc 0013                        MOVE.W    #0x0013,(A7)
0000439C   4eb9 0000 2770                   JSR       A_00002770
000043A2   6000 0384                        BRA.L     B_4728
000043A6   3e86                             MOVE.W    D6,(A7)
000043A8   3f3c 0014                        MOVE.W    #0x0014,-(A7)
000043AC   4eb9 0000 276c                   JSR       A_0000276c
000043B2   548f                             ADDQ      #2,A7
000043B4   6000 0366                        BRA.L     B_471c
000043B8   2e8d                             MOVE      A5,(A7)
000043BA   4eb9 0000 2a1c                   JSR       A_00002a1c
000043C0   6000 035a                        BRA.L     B_471c
000043C4   2e8d                             MOVE      A5,(A7)
000043C6   4eb9 0000 2b42                   JSR       A_00002b42
000043CC   6000 034e                        BRA.L     B_471c
000043D0   4eb9 0000 27a2                   JSR       A_000027a2
000043D6   6000 0350                        BRA.L     B_4728
000043DA   303c 2022                        MOVE.W    #0x2022,D0
000043DE   6000 0348                        BRA.L     B_4728
000043E2   4279 0000 5d82                   CLR.W     A_00005d82
000043E8   4279 0000 60b8                   CLR.W     A_000060b8
000043EE   4279 0000 5e74                   CLR.W     A_00005e74
000043F4   13fc 00ff 0000 5d8c              MOVE.B    #0x00ff,A_00005d8c
000043FC   4239 0000 5d8d                   CLR.B     A_00005d8d
00004402   6000 0318                        BRA.L     B_471c
00004406   3006                             MOVE.W    D6,D0
00004408   c07c 00ff                        AND.W     #0x00ff,D0
0000440C   3e80                             MOVE.W    D0,(A7)
0000440E   4eb9 0000 3574                   JSR       A_00003574
00004414   3006                             MOVE.W    D6,D0
00004416   c07c 00ff                        AND.W     #0x00ff,D0
0000441A   13c0 0000 5d8d                   MOVE.B    D0,A_00005d8d
00004420   6000 02fa                        BRA.L     B_471c
00004424   2e8e                             MOVE      A6,(A7)
00004426   5d97                             SUBQ      #6,(A7)
00004428   6100 0308                        BSR       B_4732
0000442C   422d 000c                        CLR.B     (D_000c,A5)
00004430   422d 000e                        CLR.B     (D_000e,A5)
00004434   4257                             CLR.W     (A7)
00004436   2f0d                             MOVE      A5,-(A7)
00004438   2f3c 0000 3782                   MOVE      #0x00003782,-(A7)
0000443E   4eb9 0000 3286                   JSR       A_00003286
00004444   508f                             ADDQ      #8,A7
00004446   3a00                             MOVE.W    D0,D5
00004448   6000 02d2                        BRA.L     B_471c
0000444C   2e8e                             MOVE      A6,(A7)
0000444E   5d97                             SUBQ      #6,(A7)
00004450   6100 02e0                        BSR       B_4732
00004454   2e8d                             MOVE      A5,(A7)
00004456   4eb9 0000 3974                   JSR       A_00003974
0000445C   3a00                             MOVE.W    D0,D5
0000445E   6000 02bc                        BRA.L     B_471c
00004462   23cd 0000 5da2                   MOVE      A5,A_00005da2
00004468   2e8e                             MOVE      A6,(A7)
0000446A   5d97                             SUBQ      #6,(A7)
0000446C   4267                             CLR.W     -(A7)
0000446E   2f0d                             MOVE      A5,-(A7)
00004470   4eb9 0000 39ca                   JSR       A_000039ca
00004476   5c8f                             ADDQ      #6,A7
00004478   3a00                             MOVE.W    D0,D5
0000447A   6000 02a0                        BRA.L     B_471c
0000447E   2a79 0000 5da2                   MOVE      A_00005da2,A5
00004484   2d4d fffc                        MOVE      A5,(D_fffc,A6)
00004488   2e8e                             MOVE      A6,(A7)
0000448A   5d97                             SUBQ      #6,(A7)
0000448C   3f3c 0001                        MOVE.W    #0x0001,-(A7)
00004490   2f0d                             MOVE      A5,-(A7)
00004492   4eb9 0000 39ca                   JSR       A_000039ca
00004498   5c8f                             ADDQ      #6,A7
0000449A   3a00                             MOVE.W    D0,D5
0000449C   6000 027e                        BRA.L     B_471c
000044A0   2e8e                             MOVE      A6,(A7)
000044A2   5d97                             SUBQ      #6,(A7)
000044A4   6100 028c                        BSR       B_4732
000044A8   3ebc 0002                        MOVE.W    #0x0002,(A7)
000044AC   2f0d                             MOVE      A5,-(A7)
000044AE   2f3c 0000 3ade                   MOVE      #0x00003ade,-(A7)
000044B4   4eb9 0000 3286                   JSR       A_00003286
000044BA   508f                             ADDQ      #8,A7
000044BC   3a00                             MOVE.W    D0,D5
000044BE   6000 025c                        BRA.L     B_471c
000044C2   2e8e                             MOVE      A6,(A7)
000044C4   5d97                             SUBQ      #6,(A7)
000044C6   6100 026a                        BSR       B_4732
000044CA   4257                             CLR.W     (A7)
000044CC   3f3c 0001                        MOVE.W    #0x0001,-(A7)
000044D0   2f0d                             MOVE      A5,-(A7)
000044D2   4eb9 0000 411c                   JSR       A_0000411c
000044D8   5c8f                             ADDQ      #6,A7
000044DA   3a00                             MOVE.W    D0,D5
000044DC   6000 023e                        BRA.L     B_471c
000044E0   2e8e                             MOVE      A6,(A7)
000044E2   5d97                             SUBQ      #6,(A7)
000044E4   6100 024c                        BSR       B_4732
000044E8   4257                             CLR.W     (A7)
000044EA   4267                             CLR.W     -(A7)
000044EC   2f0d                             MOVE      A5,-(A7)
000044EE   4eb9 0000 411c                   JSR       A_0000411c
000044F4   5c8f                             ADDQ      #6,A7
000044F6   3a00                             MOVE.W    D0,D5
000044F8   6000 0222                        BRA.L     B_471c
000044FC   2e8e                             MOVE      A6,(A7)
000044FE   5d97                             SUBQ      #6,(A7)
00004500   6100 0230                        BSR       B_4732
00004504   422d 000c                        CLR.B     (D_000c,A5)
00004508   422d 000d                        CLR.B     (D_000d,A5)
0000450C   422d 000e                        CLR.B     (D_000e,A5)
00004510   422d 000f                        CLR.B     (D_000f,A5)
00004514   3ebc 0008                        MOVE.W    #0x0008,(A7)
00004518   2f0d                             MOVE      A5,-(A7)
0000451A   2f3c 0000 3a54                   MOVE      #0x00003a54,-(A7)
00004520   4eb9 0000 3286                   JSR       A_00003286
00004526   508f                             ADDQ      #8,A7
00004528   3a00                             MOVE.W    D0,D5
0000452A   6000 01f0                        BRA.L     B_471c
0000452E   2e8e                             MOVE      A6,(A7)
00004530   5d97                             SUBQ      #6,(A7)
00004532   6100 01fe                        BSR       B_4732
00004536   3ebc 0002                        MOVE.W    #0x0002,(A7)
0000453A   2f0d                             MOVE      A5,-(A7)
0000453C   2f3c 0000 3b82                   MOVE      #0x00003b82,-(A7)
00004542   4eb9 0000 3286                   JSR       A_00003286
00004548   508f                             ADDQ      #8,A7
0000454A   3a00                             MOVE.W    D0,D5
0000454C   6000 01ce                        BRA.L     B_471c
00004550   3039 0000 5d82                   MOVE.W    A_00005d82,D0
00004556   6000 01d0                        BRA.L     B_4728
0000455A   1039 0000 5d8d                   MOVE.B    A_00005d8d,D0
00004560   4880                             EXT.W     D0
00004562   c07c 00ff                        AND.W     #0x00ff,D0
00004566   6000 01c0                        BRA.L     B_4728
0000456A   23cd 0000 5d9e                   MOVE      A5,A_00005d9e
00004570   6000 01aa                        BRA.L     B_471c
00004574   303c 0001                        MOVE.W    #0x0001,D0
00004578   1239 0000 5d8d                   MOVE.B    A_00005d8d,D1
0000457E   4881                             EXT.W     D1
00004580   e360                             ASL.W     D1,D0
00004582   8179 0000 60b8                   OR.W      D0,A_000060b8
00004588   6000 0192                        BRA.L     B_471c
0000458C   3039 0000 60b8                   MOVE.W    A_000060b8,D0
00004592   6000 0194                        BRA.L     B_4728
00004596   2e8e                             MOVE      A6,(A7)
00004598   5d97                             SUBQ      #6,(A7)
0000459A   6100 0196                        BSR       B_4732
0000459E   3ebc 0002                        MOVE.W    #0x0002,(A7)
000045A2   2f0d                             MOVE      A5,-(A7)
000045A4   2f3c 0000 3bfe                   MOVE      #0x00003bfe,-(A7)
000045AA   4eb9 0000 3286                   JSR       A_00003286
000045B0   508f                             ADDQ      #8,A7
000045B2   3a00                             MOVE.W    D0,D5
000045B4   6000 0166                        BRA.L     B_471c
000045B8   1039 0000 5d8c                   MOVE.B    A_00005d8c,D0
000045BE   4880                             EXT.W     D0
000045C0   b039 0000 5d8d                   CMP.B     A_00005d8d,D0
000045C6   6710                             BEQ       B_45d8
000045C8   1039 0000 5d8d                   MOVE.B    A_00005d8d,D0
000045CE   4880                             EXT.W     D0
000045D0   3e80                             MOVE.W    D0,(A7)
000045D2   4eb9 0000 3574                   JSR       A_00003574
000045D8   3ebc 0010                        MOVE.W    #0x0010,(A7)
000045DC   2f0d                             MOVE      A5,-(A7)
000045DE   2f39 0000 5d98                   MOVE      A_00005d98,-(A7)
000045E4   4eb9 0000 36c6                   JSR       A_000036c6
000045EA   508f                             ADDQ      #8,A7
000045EC   6000 012e                        BRA.L     B_471c
000045F0   3006                             MOVE.W    D6,D0
000045F2   c07c 00ff                        AND.W     #0x00ff,D0
000045F6   b07c 000f                        CMP.W     #0x000f,D0
000045FA   620c                             BHI       B_4608
000045FC   3006                             MOVE.W    D6,D0
000045FE   c07c 00ff                        AND.W     #0x00ff,D0
00004602   13c0 0000 5d8e                   MOVE.B    D0,A_00005d8e
00004608   1039 0000 5d8e                   MOVE.B    A_00005d8e,D0
0000460E   4880                             EXT.W     D0
00004610   c07c 00ff                        AND.W     #0x00ff,D0
00004614   6000 0112                        BRA.L     B_4728
00004618   2e8e                             MOVE      A6,(A7)
0000461A   5d97                             SUBQ      #6,(A7)
0000461C   6100 0114                        BSR       B_4732
00004620   3ebc 0001                        MOVE.W    #0x0001,(A7)
00004624   3f3c 0001                        MOVE.W    #0x0001,-(A7)
00004628   2f0d                             MOVE      A5,-(A7)
0000462A   4eb9 0000 411c                   JSR       A_0000411c
00004630   5c8f                             ADDQ      #6,A7
00004632   3a00                             MOVE.W    D0,D5
00004634   6000 00e6                        BRA.L     B_471c
00004638   2e8e                             MOVE      A6,(A7)
0000463A   5d97                             SUBQ      #6,(A7)
0000463C   6100 00f4                        BSR       B_4732
00004640   3ebc 0001                        MOVE.W    #0x0001,(A7)
00004644   4267                             CLR.W     -(A7)
00004646   2f0d                             MOVE      A5,-(A7)
00004648   4eb9 0000 411c                   JSR       A_0000411c
0000464E   5c8f                             ADDQ      #6,A7
00004650   3a00                             MOVE.W    D0,D5
00004652   6000 00c8                        BRA.L     B_471c
00004656   2e8e                             MOVE      A6,(A7)
00004658   5d97                             SUBQ      #6,(A7)
0000465A   6100 00d6                        BSR       B_4732
0000465E   2e8d                             MOVE      A5,(A7)
00004660   4eb9 0000 3d1e                   JSR       A_00003d1e
00004666   6000 00b4                        BRA.L     B_471c
0000466A   2e8e                             MOVE      A6,(A7)
0000466C   5d97                             SUBQ      #6,(A7)
0000466E   6100 00c2                        BSR       B_4732
00004672   2e8d                             MOVE      A5,(A7)
00004674   4eb9 0000 3c86                   JSR       A_00003c86
0000467A   6000 00a0                        BRA.L     B_471c
0000467E   3006                             MOVE.W    D6,D0
00004680   4640                             NOT.W     D0
00004682   3c00                             MOVE.W    D0,D6
00004684   cd79 0000 5d82                   AND.W     D6,A_00005d82
0000468A   cd79 0000 60b8                   AND.W     D6,A_000060b8
00004690   cd79 0000 5e74                   AND.W     D6,A_00005e74
00004696   6000 0084                        BRA.L     B_471c
0000469A   2e8e                             MOVE      A6,(A7)
0000469C   5d97                             SUBQ      #6,(A7)
0000469E   6100 0092                        BSR       B_4732
000046A2   3ebc 0002                        MOVE.W    #0x0002,(A7)
000046A6   4267                             CLR.W     -(A7)
000046A8   2f0d                             MOVE      A5,-(A7)
000046AA   4eb9 0000 411c                   JSR       A_0000411c
000046B0   5c8f                             ADDQ      #6,A7
000046B2   3a00                             MOVE.W    D0,D5
000046B4   6066                             BRA       B_471c
000046B6   3e86                             MOVE.W    D6,(A7)
000046B8   4eb9 0000 3d90                   JSR       A_00003d90
000046BE   605c                             BRA       B_471c
000046C0   23f9 0000 5d9e 0000 5f78         MOVE      A_00005d9e,A_00005f78
000046CA   4257                             CLR.W     (A7)
000046CC   4eb9 0000 2d8a                   JSR       A_00002d8a
000046D2   4eb9 0000 37e4                   JSR       A_000037e4
000046D8   604e                             BRA       B_4728
000046DA   2eb9 0000 5d9e                   MOVE      A_00005d9e,(A7)
000046E0   2f0d                             MOVE      A5,-(A7)
000046E2   4eb9 0000 48ae                   JSR       A_000048ae
000046E8   588f                             ADDQ      #4,A7
000046EA   603c                             BRA       B_4728
000046EC   2e8d                             MOVE      A5,(A7)
000046EE   4eb9 0000 306e                   JSR       A_0000306e
000046F4   6032                             BRA       B_4728
000046F6   2e8d                             MOVE      A5,(A7)
000046F8   4eb9 0000 30e2                   JSR       A_000030e2
000046FE   601c                             BRA       B_471c
00004700   303c ffff                        MOVE.W    #0xffff,D0
00004704   6022                             BRA       B_4728
00004706   6014                             BRA       B_471c
00004708   b07c 003f                        CMP.W     #0x003f,D0
0000470C   62f2                             BHI       B_4700
0000470E   e540                             ASL.W     #2,D0
00004710   3040                             MOVE.W    D0,A0
00004712   d1fc 0000 5480                   ADDA      #0x00005480,A0
00004718   2050                             MOVE      (A0),A0
0000471A   4ed0                             JMP       (A0)
0000471C   102e fffb                        MOVE.B    (D_fffb,A6),D0
00004720   6704                             BEQ       B_4726
00004722   1aae fffa                        MOVE.B    (D_fffa,A6),(A5)
00004726   3005                             MOVE.W    D5,D0
00004728   4a9f                             TST       (A7)+
0000472A   4cdf 20e0                        MOVEM     (A7)+,REGS D5-7A5
0000472E   4e5e                             UNLK      a6
00004730   4e75                             RTS
00004732   4e56 0000                        LINK      A6,0x0
00004736   48e7 030c                        MOVEM     REGS D67A45,-(A7)
0000473A   2a6e 0008                        MOVE      (D_0008,A6),A5
0000473E   286d 0002                        MOVE      (D_0002,A5),A4
00004742   1014                             MOVE.B    (A4),D0
00004744   4880                             EXT.W     D0
00004746   1a80                             MOVE.B    D0,(A5)
00004748   4880                             EXT.W     D0
0000474A   1e00                             MOVE.B    D0,D7
0000474C   1007                             MOVE.B    D7,D0
0000474E   670a                             BEQ       B_475a
00004750   1007                             MOVE.B    D7,D0
00004752   4880                             EXT.W     D0
00004754   3e80                             MOVE.W    D0,(A7)
00004756   5357                             SUBQ.W    #1,(A7)
00004758   600a                             BRA       B_4764
0000475A   1039 0000 5d8d                   MOVE.B    A_00005d8d,D0
00004760   4880                             EXT.W     D0
00004762   3e80                             MOVE.W    D0,(A7)
00004764   4eb9 0000 3574                   JSR       A_00003574
0000476A   18b9 0000 5d8e                   MOVE.B    A_00005d8e,(A4)
00004770   1b7c 0001 0001                   MOVE.B    #0x0001,(D_0001,A5)
00004776   4a9f                             TST       (A7)+
00004778   4cdf 3080                        MOVEM     (A7)+,REGS D7A45
0000477C   4e5e                             UNLK      a6
0000477E   4e75                             RTS
00004780   4e56 fffe                        LINK      A6,0xfffe
00004784   48e7 031c                        MOVEM     REGS D67A3-5,-(A7)
00004788   2a6e 0008                        MOVE      (D_0008,A6),A5
0000478C   4247                             CLR.W     D7
0000478E   1015                             MOVE.B    (A5),D0
00004790   4880                             EXT.W     D0
00004792   6000 00f2                        BRA.L     B_4886
00004796   13ed 0003 0000 56cc              MOVE.B    (D_0003,A5),A_000056cc
0000479E   102d 0001                        MOVE.B    (D_0001,A5),D0
000047A2   4880                             EXT.W     D0
000047A4   3e80                             MOVE.W    D0,(A7)
000047A6   1039 0000 56cc                   MOVE.B    A_000056cc,D0
000047AC   4880                             EXT.W     D0
000047AE   3f00                             MOVE.W    D0,-(A7)
000047B0   3f3c 0009                        MOVE.W    #0x0009,-(A7)
000047B4   4eb9 0000 2760                   JSR       A_00002760
000047BA   588f                             ADDQ      #4,A7
000047BC   2b40 000e                        MOVE      D0,(D_000e,A5)
000047C0   6000 00e0                        BRA.L     B_48a2
000047C4   102d 0003                        MOVE.B    (D_0003,A5),D0
000047C8   4880                             EXT.W     D0
000047CA   b039 0000 56cc                   CMP.B     A_000056cc,D0
000047D0   671c                             BEQ       B_47ee
000047D2   4257                             CLR.W     (A7)
000047D4   102d 0003                        MOVE.B    (D_0003,A5),D0
000047D8   4880                             EXT.W     D0
000047DA   13c0 0000 56cc                   MOVE.B    D0,A_000056cc
000047E0   3f00                             MOVE.W    D0,-(A7)
000047E2   3f3c 0009                        MOVE.W    #0x0009,-(A7)
000047E6   4eb9 0000 2760                   JSR       A_00002760
000047EC   588f                             ADDQ      #4,A7
000047EE   286d 000e                        MOVE      (D_000e,A5),A4
000047F2   266c 000e                        MOVE      (D_000e,A4),A3
000047F6   2e8e                             MOVE      A6,(A7)
000047F8   5597                             SUBQ      #2,(A7)
000047FA   3f13                             MOVE.W    (A3),-(A7)
000047FC   2f2d 0004                        MOVE      (D_0004,A5),-(A7)
00004800   4eb9 0000 278c                   JSR       A_0000278c
00004806   5c8f                             ADDQ      #6,A7
00004808   3e80                             MOVE.W    D0,(A7)
0000480A   302b 000e                        MOVE.W    (D_000e,A3),D0
0000480E   d157                             ADD.W     D0,(A7)
00004810   3f3c 000a                        MOVE.W    #0x000a,-(A7)
00004814   4eb9 0000 276c                   JSR       A_0000276c
0000481A   548f                             ADDQ      #2,A7
0000481C   2e94                             MOVE      (A4),(A7)
0000481E   3f2e fffe                        MOVE.W    (D_fffe,A6),-(A7)
00004822   3f3c 0010                        MOVE.W    #0x0010,-(A7)
00004826   4eb9 0000 275a                   JSR       A_0000275a
0000482C   588f                             ADDQ      #4,A7
0000482E   3e80                             MOVE.W    D0,(A7)
00004830   3f3c 000b                        MOVE.W    #0x000b,-(A7)
00004834   4eb9 0000 276c                   JSR       A_0000276c
0000483A   548f                             ADDQ      #2,A7
0000483C   2ead 000a                        MOVE      (D_000a,A5),(A7)
00004840   3f3c 000c                        MOVE.W    #0x000c,-(A7)
00004844   4eb9 0000 2766                   JSR       A_00002766
0000484A   548f                             ADDQ      #2,A7
0000484C   0c15 0001                        CMP.B     #0x1,(A5)
00004850   660e                             BNE       B_4860
00004852   3ebc 000d                        MOVE.W    #0x000d,(A7)
00004856   4eb9 0000 2770                   JSR       A_00002770
0000485C   3e00                             MOVE.W    D0,D7
0000485E   6016                             BRA       B_4876
00004860   102d 0001                        MOVE.B    (D_0001,A5),D0
00004864   4880                             EXT.W     D0
00004866   3e80                             MOVE.W    D0,(A7)
00004868   3f3c 000e                        MOVE.W    #0x000e,-(A7)
0000486C   4eb9 0000 276c                   JSR       A_0000276c
00004872   548f                             ADDQ      #2,A7
00004874   3e00                             MOVE.W    D0,D7
00004876   602a                             BRA       B_48a2
00004878   3ebc 0015                        MOVE.W    #0x0015,(A7)
0000487C   4eb9 0000 2770                   JSR       A_00002770
00004882   3e00                             MOVE.W    D0,D7
00004884   601c                             BRA       B_48a2
00004886   4a40                             TST.W     D0
00004888   6700 ff0c                        BEQ.L     B_14796
0000488C   b07c 0001                        CMP.W     #0x0001,D0
00004890   6700 ff32                        BEQ.L     B_147c4
00004894   b07c 0002                        CMP.W     #0x0002,D0
00004898   6700 ff2a                        BEQ.L     B_147c4
0000489C   b07c 0003                        CMP.W     #0x0003,D0
000048A0   67d6                             BEQ       B_4878
000048A2   3007                             MOVE.W    D7,D0
000048A4   4a9f                             TST       (A7)+
000048A6   4cdf 3880                        MOVEM     (A7)+,REGS D7A3-5
000048AA   4e5e                             UNLK      a6
000048AC   4e75                             RTS
000048AE   48e7 7ffe                        MOVEM     REGS D1-7A0-6,-(A7)
000048B2   206f 003c                        MOVE      (D_003c,A7),A0
000048B6   4280                             CLR       D0
000048B8   6154                             BSR.S     B_490e
000048BA   4a40                             TST.W     D0
000048BC   662a                             BNE       B_48e8
000048BE   6100 0108                        BSR       B_49c8
000048C2   4a40                             TST.W     D0
000048C4   6622                             BNE       B_48e8
000048C6   6100 0258                        BSR       B_4b20
000048CA   4a40                             TST.W     D0
000048CC   661a                             BNE       B_48e8
000048CE   2e39 0000 56e4                   MOVE      A_000056e4,D7
000048D4   beb9 0000 56f2                   CMP       A_000056f2,D7
000048DA   6704                             BEQ       B_48e0
000048DC   6100 0350                        BSR       B_4c2e
000048E0   4a40                             TST.W     D0
000048E2   6604                             BNE       B_48e8
000048E4   6100 03e8                        BSR       B_4cce
000048E8   222f 0040                        MOVE      (D_0040,A7),D1
000048EC   6116                             BSR.S     B_4904
000048EE   4cdf 7ffe                        MOVEM     (A7)+,REGS D1-7A0-6
000048F2   4e75                             RTS
000048F4   2f00                             MOVE      D0,-(A7)
000048F6   2228 0000                        MOVE      (D_0000,A0),D1
000048FA   7014                             MOVEQ     #0x14,D0
000048FC   4e42                             TRAP      #2
000048FE   2200                             MOVE      D0,D1
00004900   201f                             MOVE      (A7)+,D0
00004902   4e75                             RTS
00004904   2f00                             MOVE      D0,-(A7)
00004906   701a                             MOVEQ     #0x1a,D0
00004908   4e42                             TRAP      #2
0000490A   201f                             MOVE      (A7)+,D0
0000490C   4e75                             RTS
0000490E   2228 0004                        MOVE      (D_0004,A0),D1
00004912   61f0                             BSR.S     B_4904
00004914   61de                             BSR.S     B_48f4
00004916   4a41                             TST.W     D1
00004918   6614                             BNE       B_492e
0000491A   7e12                             MOVEQ     #0x12,D7
0000491C   2a68 0004                        MOVE      (D_0004,A0),A5
00004920   2c7c 0000 56ce                   MOVE      #0x000056ce,A6
00004926   3cdd                             MOVE.W    (A5)+,(A6)+
00004928   51cf fffc                        DBF       D7,B_14926
0000492C   4e75                             RTS
0000492E   7002                             MOVEQ     #0x2,D0
00004930   4e75                             RTS
00004932   4281                             CLR       D1
00004934   247c 0000 56f2                   MOVE      #0x000056f2,A2
0000493A   267c 0000 56d0                   MOVE      #0x000056d0,A3
00004940   2e32 2000                        MOVE      (D_00,A2,D2.W),D7
00004944   beb2 3000                        CMP       (D_00,A2,D3.W),D7
00004948   6c0c                             BGE       B_4956
0000494A   deb3 2000                        ADD       (D_00,A3,D2.W),D7
0000494E   beb2 3000                        CMP       (D_00,A2,D3.W),D7
00004952   6e10                             BGT       B_4964
00004954   4e75                             RTS
00004956   2e32 3000                        MOVE      (D_00,A2,D3.W),D7
0000495A   deb3 3000                        ADD       (D_00,A3,D3.W),D7
0000495E   beb2 2000                        CMP       (D_00,A2,D2.W),D7
00004962   6f02                             BLE       B_4966
00004964   7201                             MOVEQ     #0x1,D1
00004966   4e75                             RTS
00004968   2c02                             MOVE      D2,D6
0000496A   5346                             SUBQ.W    #1,D6
0000496C   e54a                             LSL.W     #2,D2
0000496E   2e28 0008                        MOVE      (D_0008,A0),D7
00004972   2a7c 0000 56f2                   MOVE      #0x000056f2,A5
00004978   2c7c 0000 56d0                   MOVE      #0x000056d0,A6
0000497E   9eb6 2000                        SUB       (D_00,A6,D2.W),D7
00004982   0887 0000                        BCLR      #0,D7
00004986   2b87 2000                        MOVE      D7,(D_00,A5,D2.W)
0000498A   bea8 0004                        CMP       (D_0004,A0),D7
0000498E   6dd4                             BLT       B_4964
00004990   4283                             CLR       D3
00004992   619e                             BSR.S     B_4932
00004994   5883                             ADDQ      #4,D3
00004996   4a81                             TST       D1
00004998   56ce fff8                        DBNE      D6,B_14992
0000499C   4e75                             RTS
0000499E   2a02                             MOVE      D2,D5
000049A0   5385                             SUBQ      #1,D5
000049A2   23c5 0000 570a                   MOVE      D5,A_0000570a
000049A8   e58a                             LSL       #2,D2
000049AA   4284                             CLR       D4
000049AC   2c39 0000 570a                   MOVE      A_0000570a,D6
000049B2   2a7c 0000 56f2                   MOVE      #0x000056f2,A5
000049B8   2e35 4000                        MOVE      (D_00,A5,D4.W),D7
000049BC   61b4                             BSR.S     B_4972
000049BE   5884                             ADDQ      #4,D4
000049C0   4a81                             TST       D1
000049C2   57cd ffe8                        DBEQ      D5,B_149ac
000049C6   4e75                             RTS
000049C8   3c39 0000 56ce                   MOVE.W    A_000056ce,D6
000049CE   0246 fffe                        AND.W     #0xfffe,D6
000049D2   0c46 601a                        CMP.W     #0x601a,D6
000049D6   6600 0120                        BNE.L     B_4af8
000049DA   23f9 0000 56dc 0000 5706         MOVE      A_000056dc,A_00005706
000049E4   2e3c 0000 0100                   MOVE      #0x00000100,D7
000049EA   23c7 0000 56dc                   MOVE      D7,A_000056dc
000049F0   45f9 0000 56e0                   LEA       A_000056e0,A2
000049F6   be52                             CMP.W     (A2),D7
000049F8   6d02                             BLT       B_49fc
000049FA   2487                             MOVE      D7,(A2)
000049FC   0c79 601b 0000 56ce              CMP.W     #0x601b,A_000056ce
00004A04   6708                             BEQ       B_4a0e
00004A06   4a79 0000 56e8                   TST.W     A_000056e8
00004A0C   670c                             BEQ       B_4a1a
00004A0E   23f9 0000 56e4 0000 56f2         MOVE      A_000056e4,A_000056f2
00004A18   6040                             BRA       B_4a5a
00004A1A   0828 0000 0015                   BTST      #0,(D_0015,A0)
00004A20   6616                             BNE       B_4a38
00004A22   2e28 0004                        MOVE      (D_0004,A0),D7
00004A26   debc 0000 0101                   ADD       #0x00000101,D7
00004A2C   0887 0000                        BCLR      #0,D7
00004A30   23c7 0000 56f2                   MOVE      D7,A_000056f2
00004A36   6022                             BRA       B_4a5a
00004A38   2e28 0008                        MOVE      (D_0008,A0),D7
00004A3C   9eb9 0000 56d0                   SUB       A_000056d0,D7
00004A42   9eb9 0000 56d4                   SUB       A_000056d4,D7
00004A48   9eb9 0000 56d8                   SUB       A_000056d8,D7
00004A4E   5987                             SUBQ      #4,D7
00004A50   0887 0000                        BCLR      #0,D7
00004A54   23c7 0000 56f2                   MOVE      D7,A_000056f2
00004A5A   0c79 601b 0000 56ce              CMP.W     #0x601b,A_000056ce
00004A62   6616                             BNE       B_4a7a
00004A64   23f9 0000 56ea 0000 56f6         MOVE      A_000056ea,A_000056f6
00004A6E   23f9 0000 56ee 0000 56fa         MOVE      A_000056ee,A_000056fa
00004A78   602a                             BRA       B_4aa4
00004A7A   2e39 0000 56f2                   MOVE      A_000056f2,D7
00004A80   deb9 0000 56d0                   ADD       A_000056d0,D7
00004A86   5287                             ADDQ      #1,D7
00004A88   0887 0000                        BCLR      #0,D7
00004A8C   23c7 0000 56f6                   MOVE      D7,A_000056f6
00004A92   deb9 0000 56d4                   ADD       A_000056d4,D7
00004A98   5287                             ADDQ      #1,D7
00004A9A   0887 0000                        BCLR      #0,D7
00004A9E   23c7 0000 56fa                   MOVE      D7,A_000056fa
00004AA4   7403                             MOVEQ     #0x3,D2
00004AA6   6100 fef6                        BSR       B_1499e
00004AAA   4a81                             TST       D1
00004AAC   670a                             BEQ       B_4ab8
00004AAE   7403                             MOVEQ     #0x3,D2
00004AB0   6100 feb6                        BSR       B_14968
00004AB4   4a81                             TST       D1
00004AB6   6640                             BNE       B_4af8
00004AB8   7404                             MOVEQ     #0x4,D2
00004ABA   6100 feac                        BSR       B_14968
00004ABE   4a81                             TST       D1
00004AC0   670a                             BEQ       B_4acc
00004AC2   7404                             MOVEQ     #0x4,D2
00004AC4   6100 fed8                        BSR       B_1499e
00004AC8   4a81                             TST       D1
00004ACA   662c                             BNE       B_4af8
00004ACC   2a7c 0000 56f2                   MOVE      #0x000056f2,A5
00004AD2   2c7c 0000 56d0                   MOVE      #0x000056d0,A6
00004AD8   4282                             CLR       D2
00004ADA   7604                             MOVEQ     #0x4,D3
00004ADC   2e35 2000                        MOVE      (D_00,A5,D2.W),D7
00004AE0   bea8 0004                        CMP       (D_0004,A0),D7
00004AE4   6d12                             BLT       B_4af8
00004AE6   deb6 2000                        ADD       (D_00,A6,D2.W),D7
00004AEA   bea8 0008                        CMP       (D_0008,A0),D7
00004AEE   6e08                             BGT       B_4af8
00004AF0   5882                             ADDQ      #4,D2
00004AF2   51cb ffe8                        DBF       D3,B_14adc
00004AF6   4e75                             RTS
00004AF8   7001                             MOVEQ     #0x1,D0
00004AFA   4e75                             RTS
00004AFC   2279 0000 56fe                   MOVE      A_000056fe,A1
00004B02   2c3c 0000 0080                   MOVE      #0x00000080,D6
00004B08   9c79 0000 5710                   SUB.W     A_00005710,D6
00004B0E   d2c6                             ADDA.W    D6,A1
00004B10   9779 0000 5710                   SUB.W     D3,A_00005710
00004B16   6002                             BRA       B_4b1a
00004B18   14d9                             MOVE.B    (A1)+,(A2)+
00004B1A   51cb fffc                        DBF       D3,B_14b18
00004B1E   4e75                             RTS
00004B20   7e3f                             MOVEQ     #0x3f,D7
00004B22   2a68 0004                        MOVE      (D_0004,A0),A5
00004B26   2c79 0000 56fe                   MOVE      A_000056fe,A6
00004B2C   3cdd                             MOVE.W    (A5)+,(A6)+
00004B2E   51cf fffc                        DBF       D7,B_14b2c
00004B32   3e3c 0064                        MOVE.W    #0x0064,D7
00004B36   0c79 601a 0000 56ce              CMP.W     #0x601a,A_000056ce
00004B3E   6702                             BEQ       B_4b42
00004B40   5147                             SUBQ.W    #8,D7
00004B42   33c7 0000 5710                   MOVE.W    D7,A_00005710
00004B48   33fc 0002 0000 570e              MOVE.W    #0x0002,A_0000570e
00004B50   2479 0000 56f2                   MOVE      A_000056f2,A2
00004B56   2439 0000 56d0                   MOVE      A_000056d0,D2
00004B5C   4283                             CLR       D3
00004B5E   3639 0000 5710                   MOVE.W    A_00005710,D3
00004B64   b682                             CMP       D2,D3
00004B66   6d06                             BLT       B_4b6e
00004B68   2602                             MOVE      D2,D3
00004B6A   6190                             BSR.S     B_4afc
00004B6C   6048                             BRA       B_4bb6
00004B6E   9483                             SUB       D3,D2
00004B70   618a                             BSR.S     B_4afc
00004B72   263c 0000 0080                   MOVE      #0x00000080,D3
00004B78   b483                             CMP       D3,D2
00004B7A   6d18                             BLT       B_4b94
00004B7C   220a                             MOVE      A2,D1
00004B7E   6100 fd84                        BSR       B_14904
00004B82   6100 fd70                        BSR       B_148f4
00004B86   4a41                             TST.W     D1
00004B88   6656                             BNE       B_4be0
00004B8A   9483                             SUB       D3,D2
00004B8C   d5fc 0000 0080                   ADDA      #0x00000080,A2
00004B92   60e4                             BRA       B_4b78
00004B94   4a82                             TST       D2
00004B96   671e                             BEQ       B_4bb6
00004B98   2239 0000 56fe                   MOVE      A_000056fe,D1
00004B9E   6100 fd64                        BSR       B_14904
00004BA2   6100 fd50                        BSR       B_148f4
00004BA6   4a41                             TST.W     D1
00004BA8   6636                             BNE       B_4be0
00004BAA   33c3 0000 5710                   MOVE.W    D3,A_00005710
00004BB0   2602                             MOVE      D2,D3
00004BB2   6100 ff48                        BSR       B_14afc
00004BB6   2479 0000 56f6                   MOVE      A_000056f6,A2
00004BBC   2439 0000 56d4                   MOVE      A_000056d4,D2
00004BC2   5379 0000 570e                   SUBQ.W    #1,A_0000570e
00004BC8   6692                             BNE       B_4b5c
00004BCA   2479 0000 56fa                   MOVE      A_000056fa,A2
00004BD0   2439 0000 56d8                   MOVE      A_000056d8,D2
00004BD6   6706                             BEQ       B_4bde
00004BD8   421a                             CLR.B     (A2)+
00004BDA   5382                             SUBQ      #1,D2
00004BDC   66fa                             BNE       B_4bd8
00004BDE   4e75                             RTS
00004BE0   7002                             MOVEQ     #0x2,D0
00004BE2   4e75                             RTS
00004BE4   3e1b                             MOVE.W    (A3)+,D7
00004BE6   0247 0007                        AND.W     #0x7,D7
00004BEA   e34f                             LSL.W     #1,D7
00004BEC   4efb 7002                        JMP       (D_02,PC,D7.W)
00004BF0   6014                             BRA       B_4c06
00004BF2   6022                             BRA       B_4c16
00004BF4   6020                             BRA       B_4c16
00004BF6   601e                             BRA       B_4c16
00004BF8   6006                             BRA       B_4c00
00004BFA   6012                             BRA       B_4c0e
00004BFC   6002                             BRA       B_4c00
00004BFE   6006                             BRA       B_4c06
00004C00   201f                             MOVE      (A7)+,D0
00004C02   7003                             MOVEQ     #0x3,D0
00004C04   4e75                             RTS
00004C06   0882 0000                        BCLR      #0,D2
00004C0A   4a5a                             TST.W     (A2)+
00004C0C   4e75                             RTS
00004C0E   08c2 0000                        BSET      #0,D2
00004C12   4a5a                             TST.W     (A2)+
00004C14   4e75                             RTS
00004C16   0882 0000                        BCLR      #0,D2
00004C1A   6608                             BNE       B_4c24
00004C1C   3c12                             MOVE.W    (A2),D6
00004C1E   dc45                             ADD.W     D5,D6
00004C20   34c6                             MOVE.W    D6,(A2)+
00004C22   4e75                             RTS
00004C24   4a62                             TST.W     -(A2)
00004C26   2c12                             MOVE      (A2),D6
00004C28   dc85                             ADD       D5,D6
00004C2A   24c6                             MOVE      D6,(A2)+
00004C2C   4e75                             RTS
00004C2E   2239 0000 56fe                   MOVE      A_000056fe,D1
00004C34   6100 fcce                        BSR       B_14904
00004C38   2e39 0000 5706                   MOVE      A_00005706,D7
00004C3E   8efc 0080 3c07                   DIVU      #0x00803c07,D7
00004C44   4847                             SWAP      d7
00004C46   3639 0000 5710                   MOVE.W    A_00005710,D3
00004C4C   9647                             SUB.W     D7,D3
00004C4E   6c06                             BGE       B_4c56
00004C50   0643 0080                        ADD.W     #0x80,D3
00004C54   5246                             ADDQ.W    #1,D6
00004C56   2679 0000 56fe                   MOVE      A_000056fe,A3
00004C5C   d6fc 0080                        ADDA.W    #0x0080,A3
00004C60   96c3                             SUBA.W    D3,A3
00004C62   e24b                             LSR.W     #1,D3
00004C64   600a                             BRA       B_4c70
00004C66   6100 fc8c                        BSR       B_148f4
00004C6A   4a41                             TST.W     D1
00004C6C   6600 ff72                        BNE.L     B_14be0
00004C70   51ce fff4                        DBF       D6,B_14c66
00004C74   2a39 0000 56f2                   MOVE      A_000056f2,D5
00004C7A   2445                             MOVE      D5,A2
00004C7C   9ab9 0000 56e4                   SUB       A_000056e4,D5
00004C82   2839 0000 56d0                   MOVE      A_000056d0,D4
00004C88   33fc 0002 0000 570e              MOVE.W    #0x0002,A_0000570e
00004C90   4282                             CLR       D2
00004C92   e28c                             LSR       #1,D4
00004C94   601e                             BRA       B_4cb4
00004C96   5343                             SUBQ.W    #1,D3
00004C98   6a14                             BPL       B_4cae
00004C9A   6100 fc58                        BSR       B_148f4
00004C9E   4a41                             TST.W     D1
00004CA0   6600 ff3e                        BNE.L     B_14be0
00004CA4   2679 0000 56fe                   MOVE      A_000056fe,A3
00004CAA   363c 003f                        MOVE.W    #0x003f,D3
00004CAE   6100 ff34                        BSR       B_14be4
00004CB2   5384                             SUBQ      #1,D4
00004CB4   4a84                             TST       D4
00004CB6   66de                             BNE       B_4c96
00004CB8   2479 0000 56f6                   MOVE      A_000056f6,A2
00004CBE   2839 0000 56d4                   MOVE      A_000056d4,D4
00004CC4   5379 0000 570e                   SUBQ.W    #1,A_0000570e
00004CCA   66c4                             BNE       B_4c90
00004CCC   4e75                             RTS
00004CCE   2179 0000 56fe 000c              MOVE      A_000056fe,(D_000c,A0)
00004CD6   2e39 0000 5702                   MOVE      A_00005702,D7
00004CDC   deb9 0000 56e0                   ADD       A_000056e0,D7
00004CE2   0887 0000                        BCLR      #0,D7
00004CE6   2147 0010                        MOVE      D7,(D_0010,A0)
00004CEA   2279 0000 56fe                   MOVE      A_000056fe,A1
00004CF0   22e8 0004                        MOVE      (D_0004,A0),(A1)+
00004CF4   22e8 0008                        MOVE      (D_0008,A0),(A1)+
00004CF8   22f9 0000 56f2                   MOVE      A_000056f2,(A1)+
00004CFE   22f9 0000 56d0                   MOVE      A_000056d0,(A1)+
00004D04   22f9 0000 56f6                   MOVE      A_000056f6,(A1)+
00004D0A   22f9 0000 56d4                   MOVE      A_000056d4,(A1)+
00004D10   22f9 0000 56fa                   MOVE      A_000056fa,(A1)+
00004D16   22b9 0000 56d8                   MOVE      A_000056d8,(A1)
00004D1C   2e28 0008                        MOVE      (D_0008,A0),D7
00004D20   2c29 fffc                        MOVE      (D_fffc,A1),D6
00004D24   dc99                             ADD       (A1)+,D6
00004D26   2c7c 0000 56f2                   MOVE      #0x000056f2,A6
00004D2C   7a04                             MOVEQ     #0x4,D5
00004D2E   42b9 0000 56fa                   CLR       A_000056fa
00004D34   bc96                             CMP       (A6),D6
00004D36   6406                             BCC       B_4d3e
00004D38   be96                             CMP       (A6),D7
00004D3A   6302                             BLS       B_4d3e
00004D3C   2e16                             MOVE      (A6),D7
00004D3E   4a9e                             TST       (A6)+
00004D40   51cd fff2                        DBF       D5,B_14d34
00004D44   9e86                             SUB       D6,D7
00004D46   22c7                             MOVE      D7,(A1)+
00004D48   2468 0000                        MOVE      (D_0000,A0),A2
00004D4C   1012                             MOVE.B    (A2),D0
00004D4E   6608                             BNE       B_4d58
00004D50   303c 0019                        MOVE.W    #0x0019,D0
00004D54   4e42                             TRAP      #2
00004D56   5240                             ADDQ.W    #1,D0
00004D58   12c0                             MOVE.B    D0,(A1)+
00004D5A   4280                             CLR       D0
00004D5C   4e75                             RTS
00004D5E   303c 0016                        MOVE.W    #0x0016,D0
00004D62   7202                             MOVEQ     #0x2,D1
00004D64   243c 0000 4de0                   MOVE      #0x00004de0,D2
00004D6A   48e7 e000                        MOVEM     REGS D0-2,-(A7)
00004D6E   4e43                             TRAP      #3
00004D70   4cdf 0007                        MOVEM     (A7)+,REGS D0-2
00004D74   5241                             ADDQ.W    #1,D1
00004D76   5882                             ADDQ      #4,D2
00004D78   0c41 0018                        CMP.W     #0x18,D1
00004D7C   6600 0006                        BNE.L     B_4d84
00004D80   323c 0020                        MOVE.W    #0x0020,D1
00004D84   0c41 0022                        CMP.W     #0x22,D1
00004D88   67ea                             BEQ       B_4d74
00004D8A   0c41 0023                        CMP.W     #0x23,D1
00004D8E   67e4                             BEQ       B_4d74
00004D90   0c41 0030                        CMP.W     #0x30,D1
00004D94   6dd4                             BLT       B_4d6a
00004D96   7012                             MOVEQ     #0x12,D0
00004D98   4e43                             TRAP      #3
00004D9A   2040                             MOVE      D0,A0
00004D9C   4a58                             TST.W     (A0)+
00004D9E   2218                             MOVE      (A0)+,D1
00004DA0   2401                             MOVE      D1,D2
00004DA2   d490                             ADD       (A0),D2
00004DA4   2639 0000 60ac                   MOVE      A_000060ac,D3
00004DAA   2839 0000 60a6                   MOVE      A_000060a6,D4
00004DB0   303c 0011                        MOVE.W    #0x0011,D0
00004DB4   206f 0004                        MOVE      (D_0004,A7),A0
00004DB8   23c8 0000 5712                   MOVE      A0,A_00005712
00004DBE   b290                             CMP       (A0),D1
00004DC0   6200 0014                        BHI.L     B_4dd6
00004DC4   b490                             CMP       (A0),D2
00004DC6   6300 000e                        BLS.L     B_4dd6
00004DCA   b690                             CMP       (A0),D3
00004DCC   6200 000a                        BHI.L     B_4dd8
00004DD0   b890                             CMP       (A0),D4
00004DD2   6300 0004                        BLS.L     B_4dd8
00004DD6   4290                             CLR       (A0)
00004DD8   4a98                             TST       (A0)+
00004DDA   51c8 ffe2                        DBF       D0,B_14dbe
00004DDE   4e75                             RTS
00004DE0   6100 0096                        BSR       B_4e78
00004DE4   6100 0092                        BSR       B_4e78
00004DE8   6100 008e                        BSR       B_4e78
00004DEC   6100 008a                        BSR       B_4e78
00004DF0   6100 0086                        BSR       B_4e78
00004DF4   6100 0082                        BSR       B_4e78
00004DF8   6100 007e                        BSR       B_4e78
00004DFC   6100 007a                        BSR       B_4e78
00004E00   6100 0076                        BSR       B_4e78
00004E04   6100 0072                        BSR       B_4e78
00004E08   6100 006e                        BSR       B_4e78
00004E0C   6100 006a                        BSR       B_4e78
00004E10   6100 0066                        BSR       B_4e78
00004E14   6100 0062                        BSR       B_4e78
00004E18   6100 005e                        BSR       B_4e78
00004E1C   6100 005a                        BSR       B_4e78
00004E20   6100 0056                        BSR       B_4e78
00004E24   6100 0052                        BSR       B_4e78
00004E28   6100 004e                        BSR       B_4e78
00004E2C   6100 004a                        BSR       B_4e78
00004E30   6100 0046                        BSR       B_4e78
00004E34   6100 0042                        BSR       B_4e78
00004E38   6100 003e                        BSR       B_4e78
00004E3C   6100 003a                        BSR       B_4e78
00004E40   6100 0036                        BSR       B_4e78
00004E44   6100 0032                        BSR       B_4e78
00004E48   6100 002e                        BSR       B_4e78
00004E4C   6100 002a                        BSR       B_4e78
00004E50   6100 0026                        BSR       B_4e78
00004E54   6100 0022                        BSR       B_4e78
00004E58   6100 001e                        BSR       B_4e78
00004E5C   6100 001a                        BSR       B_4e78
00004E60   6100 0016                        BSR       B_4e78
00004E64   6100 0012                        BSR       B_4e78
00004E68   6100 000e                        BSR       B_4e78
00004E6C   6100 000a                        BSR       B_4e78
00004E70   6100 0006                        BSR       B_4e78
00004E74   6100 0002                        BSR       B_4e78
00004E78   4267                             CLR.W     -(A7)
00004E7A   48e7 8080                        MOVEM     REGS D0A0,-(A7)
00004E7E   202f 000a                        MOVE      (D_000a,A7),D0
00004E82   90bc 0000 4de4                   SUB       #0x00004de4,D0
00004E88   0c40 0024                        CMP.W     #0x24,D0
00004E8C   6f00 0016                        BLE.L     B_4ea4
00004E90   0c40 0058                        CMP.W     #0x58,D0
00004E94   6d00 0028                        BLT.L     B_4ebe
00004E98   0c40 0074                        CMP.W     #0x74,D0
00004E9C   6e00 0020                        BGT.L     B_4ebe
00004EA0   0440 0030                        SUB.W     #0x30,D0
00004EA4   2079 0000 5712                   MOVE      A_00005712,A0
00004EAA   d0c0                             ADDA.W    D0,A0
00004EAC   4a90                             TST       (A0)
00004EAE   6600 0060                        BNE.L     B_4f10
00004EB2   0c40 0028                        CMP.W     #0x28,D0
00004EB6   6d00 0006                        BLT.L     B_4ebe
00004EBA   0640 0030                        ADD.W     #0x30,D0
00004EBE   defc 000e                        ADDA.W    #0x000e,A7
00004EC2   e440                             ASR.W     #2,D0
00004EC4   0c40 0002                        CMP.W     #0x2,D0
00004EC8   6c00 0006                        BGE.L     B_4ed0
00004ECC   4cdf 0300                        MOVEM     (A7)+,REGS A01
00004ED0   4a5f                             TST.W     (A7)+
00004ED2   5440                             ADDQ.W    #2,D0
00004ED4   0c40 0017                        CMP.W     #0x17,D0
00004ED8   6f00 0004                        BLE.L     B_4ede
00004EDC   5040                             ADDQ.W    #8,D0
00004EDE   3f00                             MOVE.W    D0,-(A7)
00004EE0   41f9 0000 5580                   LEA       A_00005580,A0
00004EE6   6100 009a                        BSR       B_4f82
00004EEA   301f                             MOVE.W    (A7)+,D0
00004EEC   6100 00ba                        BSR       B_4fa8
00004EF0   41f9 0000 558f                   LEA       A_0000558f,A0
00004EF6   6100 008a                        BSR       B_4f82
00004EFA   201f                             MOVE      (A7)+,D0
00004EFC   6100 0096                        BSR       B_4f94
00004F00   41f9 0000 55a2                   LEA       A_000055a2,A0
00004F06   6100 007a                        BSR       B_4f82
00004F0A   4280                             CLR       D0
00004F0C   4e42                             TRAP      #2
00004F0E   4e73                             RTE
00004F10   0c40 0008                        CMP.W     #0x8,D0
00004F14   6d00 002c                        BLT.L     B_4f42
00004F18   082f 000d 000e                   BTST      #13,(D_000e,A7)
00004F1E   6692                             BNE       B_4eb2
00004F20   2f50 000a                        MOVE      (A0),(D_000a,A7)
00004F24   4e68                             MOVE      USP,A0
00004F26   212f 0010                        MOVE      (D_0010,A7),-(A0)
00004F2A   312f 000e                        MOVE.W    (D_000e,A7),-(A0)
00004F2E   4e60                             MOVE      A0,USP
00004F30   4cdf 0101                        MOVEM     (A7)+,REGS D0A0
00004F34   2f6f 0002 0008                   MOVE      (D_0002,A7),(D_0008,A7)
00004F3A   5c4f                             ADDQ.W    #6,A7
00004F3C   0257 7fff                        AND.W     #0x7fff,(A7)
00004F40   4e73                             RTE
00004F42   082f 000d 0016                   BTST      #13,(D_0016,A7)
00004F48   6600 ff68                        BNE.L     B_14eb2
00004F4C   2f50 000a                        MOVE      (A0),(D_000a,A7)
00004F50   4e68                             MOVE      USP,A0
00004F52   212f 0018                        MOVE      (D_0018,A7),-(A0)
00004F56   312f 0016                        MOVE.W    (D_0016,A7),-(A0)
00004F5A   212f 0012                        MOVE      (D_0012,A7),-(A0)
00004F5E   212f 000e                        MOVE      (D_000e,A7),-(A0)
00004F62   4e60                             MOVE      A0,USP
00004F64   4cdf 0101                        MOVEM     (A7)+,REGS D0A0
00004F68   2f6f 0002 0010                   MOVE      (D_0002,A7),(D_0010,A7)
00004F6E   defc 000e                        ADDA.W    #0x000e,A7
00004F72   0257 7fff                        AND.W     #0x7fff,(A7)
00004F76   4e73                             RTE
00004F78   2f08                             MOVE      A0,-(A7)
00004F7A   40e7                             MOVE      SR,-(A7)
00004F7C   0257 0700                        AND.W     #0x700,(A7)
00004F80   4e73                             RTE
00004F82   4281                             CLR       D1
00004F84   1218                             MOVE.B    (A0)+,D1
00004F86   6700 000a                        BEQ.L     B_4f92
00004F8A   303c 0002                        MOVE.W    #0x0002,D0
00004F8E   4e42                             TRAP      #2
00004F90   60f0                             BRA       B_4f82
00004F92   4e75                             RTS
00004F94   3f00                             MOVE.W    D0,-(A7)
00004F96   4840                             SWAP      d0
00004F98   6100 0004                        BSR       B_4f9e
00004F9C   301f                             MOVE.W    (A7)+,D0
00004F9E   3f00                             MOVE.W    D0,-(A7)
00004FA0   e048                             LSR.W     #8,D0
00004FA2   6100 0004                        BSR       B_4fa8
00004FA6   301f                             MOVE.W    (A7)+,D0
00004FA8   3f00                             MOVE.W    D0,-(A7)
00004FAA   e848                             LSR.W     #4,D0
00004FAC   6100 0004                        BSR       B_4fb2
00004FB0   301f                             MOVE.W    (A7)+,D0
00004FB2   0240 000f                        AND.W     #0xf,D0
00004FB6   0c40 000a                        CMP.W     #0xa,D0
00004FBA   6d00 0006                        BLT.L     B_4fc2
00004FBE   0600 0007                        ADD.B     #0x7,D0
00004FC2   0600 0030                        ADD.B     #0x30,D0
00004FC6   3200                             MOVE.W    D0,D1
00004FC8   303c 0002                        MOVE.W    #0x0002,D0
00004FCC   4e42                             TRAP      #2
00004FCE   4e75                             RTS
// AhXZbg
00004FD0   23fc 0000 55ae 0000 5716         MOVE      #0x000055ae,A_00005716	"68K"
00004FDA   23fc 0000 55b2 0000 5720         MOVE      #0x000055b2,A_00005720    "   "
00004FE4   23fc 0000 55b6 0000 572a         MOVE      #0x000055b6,A_0000572a
00004FEE   23fc 0000 55ba 0000 5734         MOVE      #0x000055ba,A_00005734
00004FF8   23fc 0000 04d6 0000 571a         MOVE      #0x000004d6,A_0000571a
00005002   23fc 0000 04d6 0000 5724         MOVE      #0x000004d6,A_00005724
0000500C   23fc 0000 04d6 0000 572e         MOVE      #0x000004d6,A_0000572e
00005016   23fc 0000 04d6 0000 5738         MOVE      #0x000004d6,A_00005738
00005020   4e75                             RTS
00005022   0000 5248                        OR.B      #0x5248,D0
00005026   0000 0000                        OR.B      #0x0,D0
0000502A   524c                             ADDQ.W    #1,A4
0000502C   0009 0000                        OR.B      #0x0,A1
00005030   5251                             ADDQ.W    #1,(A1)
00005032   0001 0000                        OR.B      #0x0,D1
00005036   5256                             ADDQ.W    #1,(A6)
00005038   0002 0000                        OR.B      #0x0,D2
0000503C   525a                             ADDQ.W    #1,(A2)+
0000503E   0003 0000                        OR.B      #0x0,D3
00005042   525e                             ADDQ.W    #1,(A6)+
00005044   0004 0000                        OR.B      #0x0,D4
00005048   5263                             ADDQ.W    #1,-(A3)
0000504A   0006 0000                        OR.B      #0x0,D6
0000504E   0000 ffff                        OR.B      #0xffff,D0
00005052   4e4f                             TRAP      #15
00005054   4e2d                             DATA.W    0x4e2d  ; Unrecognized
00005056   5359                             SUBQ.W    #1,(A1)+
00005058   5354                             SUBQ.W    #1,(A4)
0000505A   454d                             DATA.W    0x454d  ; Unrecognized
0000505C   2046                             MOVE      D6,A0
0000505E   494c                             DATA.W    0x494c  ; Unrecognized
00005060   4528                             DATA.W    0x4528  ; Unrecognized
00005062   5329 2045                        SUBQ.B    #1,(D_2045,A1)
00005066   5849                             ADDQ.W    #4,A1
00005068   5354                             SUBQ.W    #1,(A4)
0000506A   2400                             MOVE      D0,D2
0000506C   456e                             DATA.W    0x456e  ; Unrecognized
0000506E   7465                             MOVEQ     #0x65,D2
00005070   7220                             MOVEQ     #0x20,D1
00005072   4669 6c65                        NOT.W     (D_6c65,A1)
00005076   6e61                             BGT       B_50d9
00005078   6d65                             BLT       B_50df
0000507A   3a20                             MOVE.W    -(A0),D5
0000507C   2400                             MOVE      D0,D2
0000507E   456e                             DATA.W    0x456e  ; Unrecognized
00005080   7465                             MOVEQ     #0x65,D2
00005082   7220                             MOVEQ     #0x20,D1
00005084   4f6c                             DATA.W    0x4f6c  ; Unrecognized
00005086   6420                             BCC       B_50a8
00005088   4e61                             MOVE      A1,USP
0000508A   6d65                             BLT       B_50f1
0000508C   3a20                             MOVE.W    -(A0),D5
0000508E   2400                             MOVE      D0,D2
00005090   456e                             DATA.W    0x456e  ; Unrecognized
00005092   7465                             MOVEQ     #0x65,D2
00005094   7220                             MOVEQ     #0x20,D1
00005096   4e65                             MOVE      A5,USP
00005098   7720                             MOVEQ     #0x20,D3
0000509A   4e61                             MOVE      A1,USP
0000509C   6d65                             BLT       B_5103
0000509E   3a20                             MOVE.W    -(A0),D5
000050A0   2400                             MOVE      D0,D2
000050A2   4669 6c65                        NOT.W     (D_6c65,A1)
000050A6   2061                             MOVE      -(A1),A0
000050A8   6c72                             BGE       B_511c
000050AA   6561                             BCS       B_510d
000050AC   6479                             BCC       B_5127
000050AE   2065                             MOVE      -(A5),A0
000050B0   7869                             MOVEQ     #0x69,D4
000050B2   7374                             MOVEQ     #0x74,D1
000050B4   7324                             MOVEQ     #0x24,D1
000050B6   0000 4e6f                        OR.B      #0x4e6f,D0
000050BA   2066                             MOVE      -(A6),A0
000050BC   696c                             BVS       B_512a
000050BE   6524                             BCS       B_50e4
000050C0   0000 4e6f                        OR.B      #0x4e6f,D0
000050C4   2077 696c 6463                   MOVE      (D_6463,A7),A0
000050CA   6172                             BSR.S     B_513e
000050CC   6420                             BCC       B_50ee
000050CE   6669                             BNE       B_5139
000050D0   6c65                             BGE       B_5137
000050D2   6e61                             BGT       B_5135
000050D4   6d65                             BLT       B_513b
000050D6   7324                             MOVEQ     #0x24,D1
000050D8   0000 5379                        OR.B      #0x5379,D0
000050DC   6e74                             BGT       B_5152
000050DE   6178                             BSR.S     B_5158
000050E0   3a20                             MOVE.W    -(A0),D5
000050E2   5245                             ADDQ.W    #1,D5
000050E4   4e20                             DATA.W    0x4e20  ; Unrecognized
000050E6   4e65                             MOVE      A5,USP
000050E8   7766                             MOVEQ     #0x66,D3
000050EA   696c                             BVS       B_5158
000050EC   653d                             BCS       B_512b
000050EE   4f6c                             DATA.W    0x4f6c  ; Unrecognized
000050F0   6466                             BCC       B_5158
000050F2   696c                             BVS       B_5160
000050F4   6524                             BCS       B_511a
000050F6   0000 436f                        OR.B      #0x436f,D0
000050FA   6e66                             BGT       B_5162
000050FC   6972                             BVS       B_5170
000050FE   6d28                             BLT       B_5128
00005100   592f 4e29                        SUBQ.B    #4,(D_4e29,A7)
00005104   3f20                             MOVE.W    -(A0),-(A7)
00005106   2400                             MOVE      D0,D2
00005108   456e                             DATA.W    0x456e  ; Unrecognized
0000510A   7465                             MOVEQ     #0x65,D2
0000510C   7220                             MOVEQ     #0x20,D1
0000510E   5573 6572 204e 6f3a 2024         SUBQ.W    #2,([D_204e6f3a,A3]D_2024)
00005118   0000 2e53                        OR.B      #0x2e53,D0
0000511C   5542                             SUBQ.W    #2,D2
0000511E   2066                             MOVE      -(A6),A0
00005120   696c                             BVS       B_518e
00005122   6520                             BCS       B_5144
00005124   6e6f                             BGT       B_5195
00005126   7420                             MOVEQ     #0x20,D2
00005128   666f                             BNE       B_5199
0000512A   756e                             MOVEQ     #0x6e,D2
0000512C   6424                             BCC       B_5152
0000512E   0000 5573                        OR.B      #0x5573,D0
00005132   6572                             BCS       B_51a6
00005134   2023                             MOVE      -(A3),D0
00005136   2072 616e 6765 2069              MOVE      ([D_6765,A2]D_2069),A0
0000513E   7320                             MOVEQ     #0x20,D1
00005140   5b30 2d31 355d 2400              SUBQ.B    #5,([D_355d2400,A0,D2.L*4])
00005148   546f 6f20                        ADDQ.W    #2,(D_6f20,A7)
0000514C   6d61                             BLT       B_51af
0000514E   6e79                             BGT       B_51c9
00005150   2061                             MOVE      -(A1),A0
00005152   7267                             MOVEQ     #0x67,D1
00005154   756d                             MOVEQ     #0x6d,D2
00005156   656e                             BCS       B_51c6
00005158   7473                             MOVEQ     #0x73,D2
0000515A   3a20                             MOVE.W    -(A0),D5
0000515C   2400                             MOVE      D0,D2
0000515E   496e                             DATA.W    0x496e  ; Unrecognized
00005160   7375                             MOVEQ     #0x75,D1
00005162   6666                             BNE       B_51ca
00005164   6963                             BVS       B_51c9
00005166   6965                             BVS       B_51cd
00005168   6e74                             BGT       B_51de
0000516A   206d 656d                        MOVE      (D_656d,A5),A0
0000516E   6f72                             BLE       B_51e2
00005170   7920                             MOVEQ     #0x20,D4
00005172   6f72                             BLE       B_51e6
00005174   2062                             MOVE      -(A2),A0
00005176   6164                             BSR.S     B_51dc
00005178   2066                             MOVE      -(A6),A0
0000517A   696c                             BVS       B_51e8
0000517C   6520                             BCS       B_519e
0000517E   6865                             BVC       B_51e5
00005180   6164                             BSR.S     B_51e6
00005182   6572                             BCS       B_51f6
00005184   2400                             MOVE      D0,D2
00005186   5265                             ADDQ.W    #1,-(A5)
00005188   6164                             BSR.S     B_51ee
0000518A   2065                             MOVE      -(A5),A0
0000518C   7272                             MOVEQ     #0x72,D1
0000518E   6f72                             BLE       B_5202
00005190   206f 6e20                        MOVE      (D_6e20,A7),A0
00005194   7072                             MOVEQ     #0x72,D0
00005196   6f67                             BLE       B_51ff
00005198   7261                             MOVEQ     #0x61,D1
0000519A   6d20                             BLT       B_51bc
0000519C   6c6f                             BGE       B_520d
0000519E   6164                             BSR.S     B_5204
000051A0   2400                             MOVE      D0,D2
000051A2   4261                             CLR.W     -(A1)
000051A4   6420                             BCC       B_51c6
000051A6   7265                             MOVEQ     #0x65,D1
000051A8   6c6f                             BGE       B_5219
000051AA   6361                             BLS       B_520d
000051AC   7469                             MOVEQ     #0x69,D2
000051AE   6f6e                             BLE       B_521e
000051B0   2069 6e66                        MOVE      (D_6e66,A1),A0
000051B4   6f72                             BLE       B_5228
000051B6   6d61                             BLT       B_5219
000051B8   7469                             MOVEQ     #0x69,D2
000051BA   6f6e                             BLE       B_522a
000051BC   2062                             MOVE      -(A2),A0
000051BE   6974                             BVS       B_5234
000051C0   7324                             MOVEQ     #0x24,D1
000051C2   0000 5072                        OR.B      #0x5072,D0
000051C6   6f67                             BLE       B_522f
000051C8   7261                             MOVEQ     #0x61,D1
000051CA   6d20                             BLT       B_51ec
000051CC   6c6f                             BGE       B_523d
000051CE   6164                             BSR.S     B_5234
000051D0   2065                             MOVE      -(A5),A0
000051D2   7272                             MOVEQ     #0x72,D1
000051D4   6f72                             BLE       B_5248
000051D6   2400                             MOVE      D0,D2
000051D8   3e3c 2e2c                        MOVE.W    #0x2e2c,D7
000051DC   3d5b 5d3b                        MOVE.W    (A3)+,(D_5d3b,A6)
000051E0   7c26                             MOVEQ     #0x26,D6
000051E2   2f28 292b                        MOVE      (D_292b,A0),-(A7)
000051E6   2d5c 0000                        MOVE      (A4)+,(D_0000,A6)
000051EA   0009 0000                        OR.B      #0x0,A1
000051EE   000a 0000                        OR.B      #0x0,A2
000051F2   001a 0000                        OR.B      #0x0,(A2)+
000051F6   0020 0000                        OR.B      #0x0,-(A0)
000051FA   0024 0000                        OR.B      #0x0,-(A4)
000051FE   003b 0000 0000                   OR.B      #0x0,(D_00,PC,D0.W)
00005204   0000 2102                        OR.B      #0x2102,D0
00005208   0000 217a                        OR.B      #0x217a,D0
0000520C   0000 218a                        OR.B      #0x218a,D0
00005210   0000 2102                        OR.B      #0x2102,D0
00005214   0000 215a                        OR.B      #0x215a,D0
00005218   0000 20f2                        OR.B      #0x20f2,D0
0000521C   0000 2194                        OR.B      #0x2194,D0
00005220   0000 23b8                        OR.B      #0x23b8,D0
00005224   0000 23ce                        OR.B      #0x23ce,D0
00005228   0000 23d6                        OR.B      #0x23d6,D0
0000522C   0000 23de                        OR.B      #0x23de,D0
00005230   0000 23e6                        OR.B      #0x23e6,D0
00005234   0000 2404                        OR.B      #0x2404,D0
00005238   0000 2424                        OR.B      #0x2424,D0
0000523C   0000 24ca                        OR.B      #0x24ca,D0
00005240   0000 24b6                        OR.B      #0x24b6,D0
00005244   0000 23c2                        OR.B      #0x23c2,D0
00005248   4449                             NEG.W     A1
0000524A   5200                             ADDQ.B    #1,D0
0000524C   4449                             NEG.W     A1
0000524E   5253                             ADDQ.W    #1,(A3)
00005250   0054 5950                        OR.W      #0x5950,(A4)
00005254   4500                             DATA.W    0x4500  ; Unrecognized
00005256   5245                             ADDQ.W    #1,D5
00005258   4e00                             DATA.W    0x4e00  ; Unrecognized
0000525A   4552                             DATA.W    0x4552  ; Unrecognized
0000525C   4100                             DATA.W    0x4100  ; Unrecognized
0000525E   5553                             SUBQ.W    #2,(A3)
00005260   4552                             DATA.W    0x4552  ; Unrecognized
00005262   0053 5542                        OR.W      #0x5542,(A3)
00005266   4d49                             DATA.W    0x4d49  ; Unrecognized
00005268   5400                             ADDQ.B    #2,D0
0000526A   5355                             SUBQ.W    #1,(A5)
0000526C   4200                             CLR.B     D0
0000526E   0000 52fe                        OR.B      #0x52fe,D0
00005272   0000 533e                        OR.B      #0x533e,D0
00005276   0000 5361                        OR.B      #0x5361,D0
0000527A   0000 0003                        OR.B      #0x3,D0
0000527E   0000 0041                        OR.B      #0x41,D0
00005282   0000 0043                        OR.B      #0x43,D0
00005286   0000 0052                        OR.B      #0x52,D0
0000528A   0000 0061                        OR.B      #0x61,D0
0000528E   0000 0063                        OR.B      #0x63,D0
00005292   0000 0072                        OR.B      #0x72,D0
00005296   0000 0000                        OR.B      #0x0,D0
0000529A   0000 2eba                        OR.B      #0x2eba,D0
0000529E   0000 2ec2                        OR.B      #0x2ec2,D0
000052A2   0000 2eca                        OR.B      #0x2eca,D0
000052A6   0000 2ed6                        OR.B      #0x2ed6,D0
000052AA   0000 2ec2                        OR.B      #0x2ec2,D0
000052AE   0000 2eca                        OR.B      #0x2eca,D0
000052B2   0000 2ed6                        OR.B      #0x2ed6,D0
000052B6   0000 2ef4                        OR.B      #0x2ef4,D0
000052BA   0000 0003                        OR.B      #0x3,D0
000052BE   0000 0041                        OR.B      #0x41,D0
000052C2   0000 0043                        OR.B      #0x43,D0
000052C6   0000 0061                        OR.B      #0x61,D0
000052CA   0000 0063                        OR.B      #0x63,D0
000052CE   0000 0000                        OR.B      #0x0,D0
000052D2   0000 2f96                        OR.B      #0x2f96,D0
000052D6   0000 2f9e                        OR.B      #0x2f9e,D0
000052DA   0000 2fa6                        OR.B      #0x2fa6,D0
000052DE   0000 2f9e                        OR.B      #0x2f9e,D0
000052E2   0000 2fa6                        OR.B      #0x2fa6,D0
000052E6   0000 2fea                        OR.B      #0x2fea,D0
000052EA   0000 300c                        OR.B      #0x300c,D0
000052EE   0000 301e                        OR.B      #0x301e,D0
000052F2   0000 3030                        OR.B      #0x3030,D0
000052F6   0000 303a                        OR.B      #0x303a,D0
000052FA   0000 304a                        OR.B      #0x304a,D0
000052FE   4350                             DATA.W    0x4350  ; Unrecognized
00005300   2f4d 2d36                        MOVE      A5,(D_2d36,A7)
00005304   384b                             MOVE.W    A3,A4
00005306   2874 6d29 2c20                   MOVE      ([D_2c20,A4,D6.L*4]),A4
0000530C   5665                             ADDQ.W    #3,-(A5)
0000530E   7273                             MOVEQ     #0x73,D1
00005310   696f                             BVS       B_5381
00005312   6e20                             BGT       B_5334
00005314   312e 332c                        MOVE.W    (D_332c,A6),-(A0)
00005318   2043                             MOVE      D3,A0
0000531A   6f70                             BLE       B_538c
0000531C   7972                             MOVEQ     #0x72,D4
0000531E   6967                             BVS       B_5387
00005320   6874                             BVC       B_5396
00005322   2028 6329                        MOVE      (D_6329,A0),D0
00005326   2031 3938 352c 2044              MOVE      (D_352c2044,A1,D3.L),D0
0000532E   6967                             BVS       B_5397
00005330   6974                             BVS       B_53a6
00005332   616c                             BSR.S     B_53a0
00005334   2052                             MOVE      (A2),A0
00005336   6573                             BCS       B_53ab
00005338   6561                             BCS       B_539b
0000533A   7263                             MOVEQ     #0x63,D1
0000533C   6800 5858                        BVC.L     B_ab96
00005340   5858                             ADDQ.W    #4,(A0)+
00005342   2d30 3030                        MOVE      (D_30,A0,D3.W),-(A6)
00005346   302d 3635                        MOVE.W    (D_3635,A5),D0
0000534A   3433 3231                        MOVE.W    (D_31,A3,D3.W*2),D2
0000534E   0020 6572                        OR.B      #0x6572,-(A0)
00005352   726f                             MOVEQ     #0x6f,D1
00005354   7220                             MOVEQ     #0x20,D1
00005356   6f6e                             BLE       B_53c6
00005358   2064                             MOVE      -(A4),A0
0000535A   7269                             MOVEQ     #0x69,D1
0000535C   7665                             MOVEQ     #0x65,D3
0000535E   2024                             MOVE      -(A4),D0
00005360   000d 0a57                        OR.B      #0xa57,A5
00005364   4152                             DATA.W    0x4152  ; Unrecognized
00005366   4e49                             TRAP      #9
00005368   4e47                             TRAP      #7
0000536A   202d 2d20                        MOVE      (D_2d20,A5),D0
0000536E   446f 206e                        NEG.W     (D_206e,A7)
00005372   6f74                             BLE       B_53e8
00005374   2061                             MOVE      -(A1),A0
00005376   7474                             MOVEQ     #0x74,D2
00005378   656d                             BCS       B_53e7
0000537A   7074                             MOVEQ     #0x74,D0
0000537C   2074 6f20 6368                   MOVE      (D_6368,A4,D6.L*8),A0
00005382   616e                             BSR.S     B_53f2
00005384   6765                             BEQ       B_53eb
00005386   2064                             MOVE      -(A4),A0
00005388   6973                             BVS       B_53fd
0000538A   6b73                             BMI       B_53ff
0000538C   2400                             MOVE      D0,D2
0000538E   0a0d 446f                        EOR.B     #0x446f,A5
00005392   2079 6f75 2077                   MOVE      A_6f752077,A0
00005398   616e                             BSR.S     B_5408
0000539A   7420                             MOVEQ     #0x20,D2
0000539C   746f                             MOVEQ     #0x6f,D2
0000539E   3a20                             MOVE.W    -(A0),D5
000053A0   2041                             MOVE      D1,A0
000053A2   626f                             BHI       B_5413
000053A4   7274                             MOVEQ     #0x74,D1
000053A6   2028 4129                        MOVE      (D_4129,A0),D0
000053AA   2c20                             MOVE      -(A0),D6
000053AC   2052                             MOVE      (A2),A0
000053AE   6574                             BCS       B_5424
000053B0   7279                             MOVEQ     #0x79,D1
000053B2   2028 5229                        MOVE      (D_5229,A0),D0
000053B6   2400                             MOVE      D0,D2
000053B8   2c20                             MOVE      -(A0),D6
000053BA   6f72                             BLE       B_542e
000053BC   2043                             MOVE      D3,A0
000053BE   6f6e                             BLE       B_542e
000053C0   7469                             MOVEQ     #0x69,D2
000053C2   6e75                             BGT       B_5439
000053C4   6520                             BCS       B_53e6
000053C6   7769                             MOVEQ     #0x69,D3
000053C8   7468                             MOVEQ     #0x68,D2
000053CA   2062                             MOVE      -(A2),A0
000053CC   6164                             BSR.S     B_5432
000053CE   2064                             MOVE      -(A4),A0
000053D0   6174                             BSR.S     B_5446
000053D2   6120                             BSR.S     B_53f4
000053D4   2843                             MOVE      D3,A4
000053D6   2924                             MOVE      -(A4),-(A4)
000053D8   003f 2024                        OR.B      #0x2024,????
000053DC   000d 0a24                        OR.B      #0xa24,A5
000053E0   0043 502f                        OR.W      #0x502f,D3
000053E4   4d20                             DATA.W    0x4d20  ; Unrecognized
000053E6   4469 736b                        NEG.W     (D_736b,A1)
000053EA   2066                             MOVE      -(A6),A0
000053EC   696c                             BVS       B_545a
000053EE   6520                             BCS       B_5410
000053F0   6572                             BCS       B_5464
000053F2   726f                             MOVEQ     #0x6f,D1
000053F4   723a                             MOVEQ     #0x3a,D1
000053F6   2024                             MOVE      -(A4),D0
000053F8   0020 6973                        OR.B      #0x6973,-(A0)
000053FC   2072 6561 642d                   MOVE      ([D_642d,A2]),A0
00005402   6f6e                             BLE       B_5472
00005404   6c79                             BGE       B_547f
00005406   2e24                             MOVE      -(A4),D7
00005408   000d 0a44                        OR.B      #0xa44,A5
0000540C   6f20                             BLE       B_542e
0000540E   796f                             MOVEQ     #0x6f,D4
00005410   7520                             MOVEQ     #0x20,D2
00005412   7761                             MOVEQ     #0x61,D3
00005414   6e74                             BGT       B_548a
00005416   2074 6f3a 2043 6861 6e67         MOVE      ([D_20436861,A4,D6.L*8]D_6e67),A0
00005420   6520                             BCS       B_5442
00005422   6974                             BVS       B_5498
00005424   2074 6f20 7265                   MOVE      (D_7265,A4,D6.L*8),A0
0000542A   6164                             BSR.S     B_5490
0000542C   2f77 7269 7465                   MOVE      (D_69,A7,D7.W*2),(D_7465,A7)
00005432   2028 4329                        MOVE      (D_4329,A0),D0
00005436   2c20                             MOVE      -(A0),D6
00005438   6f72                             BLE       B_54ac
0000543A   2041                             MOVE      D1,A0
0000543C   626f                             BHI       B_54ad
0000543E   7274                             MOVEQ     #0x74,D1
00005440   2028 4129                        MOVE      (D_4129,A0),D0
00005444   3f20                             MOVE.W    -(A0),-(A7)
00005446   2400                             MOVE      D0,D2
00005448   0d0a 2400                        MOVEP.W   (0x2400,A2),D6
0000544C   0d0a 4350                        MOVEP.W   (0x4350,A2),D6
00005450   2f4d 2044                        MOVE      A5,(D_2044,A7)
00005454   6973                             BVS       B_54c9
00005456   6b20                             BMI       B_5478
00005458   2400                             MOVE      D0,D2
0000545A   7265                             MOVEQ     #0x65,D1
0000545C   6164                             BSR.S     B_54c2
0000545E   2400                             MOVE      D0,D2
00005460   7772                             MOVEQ     #0x72,D3
00005462   6974                             BVS       B_54d8
00005464   6524                             BCS       B_548a
00005466   0073 656c 6563 7424 0073 656c    OR.W      #0x656c,([D_7424,A3]D_0073656c)
00005472   6563                             BCS       B_54d7
00005474   7424                             MOVEQ     #0x24,D2
00005476   0063 6861                        OR.W      #0x6861,-(A3)
0000547A   6e67                             BGT       B_54e3
0000547C   6524                             BCS       B_54a2
0000547E   0000 0000                        OR.B      #0x0,D0
00005482   432a                             DATA.W    0x432a  ; Unrecognized
00005484   0000 4332                        OR.B      #0x4332,D0
00005488   0000 433c                        OR.B      #0x433c,D0
0000548C   0000 434e                        OR.B      #0x434e,D0
00005490   0000 435c                        OR.B      #0x435c,D0
00005494   0000 4374                        OR.B      #0x4374,D0
00005498   0000 438c                        OR.B      #0x438c,D0
0000549C   0000 4398                        OR.B      #0x4398,D0
000054A0   0000 43a6                        OR.B      #0x43a6,D0
000054A4   0000 43b8                        OR.B      #0x43b8,D0
000054A8   0000 43c4                        OR.B      #0x43c4,D0
000054AC   0000 43d0                        OR.B      #0x43d0,D0
000054B0   0000 43da                        OR.B      #0x43da,D0
000054B4   0000 43e2                        OR.B      #0x43e2,D0
000054B8   0000 4406                        OR.B      #0x4406,D0
000054BC   0000 4424                        OR.B      #0x4424,D0
000054C0   0000 444c                        OR.B      #0x444c,D0
000054C4   0000 4462                        OR.B      #0x4462,D0
000054C8   0000 447e                        OR.B      #0x447e,D0
000054CC   0000 44a0                        OR.B      #0x44a0,D0
000054D0   0000 44c2                        OR.B      #0x44c2,D0
000054D4   0000 44e0                        OR.B      #0x44e0,D0
000054D8   0000 44fc                        OR.B      #0x44fc,D0
000054DC   0000 452e                        OR.B      #0x452e,D0
000054E0   0000 4550                        OR.B      #0x4550,D0
000054E4   0000 455a                        OR.B      #0x455a,D0
000054E8   0000 456a                        OR.B      #0x456a,D0
000054EC   0000 4700                        OR.B      #0x4700,D0
000054F0   0000 4574                        OR.B      #0x4574,D0
000054F4   0000 458c                        OR.B      #0x458c,D0
000054F8   0000 4596                        OR.B      #0x4596,D0
000054FC   0000 45b8                        OR.B      #0x45b8,D0
00005500   0000 45f0                        OR.B      #0x45f0,D0
00005504   0000 4618                        OR.B      #0x4618,D0
00005508   0000 4638                        OR.B      #0x4638,D0
0000550C   0000 4656                        OR.B      #0x4656,D0
00005510   0000 466a                        OR.B      #0x466a,D0
00005514   0000 467e                        OR.B      #0x467e,D0
00005518   0000 4700                        OR.B      #0x4700,D0
0000551C   0000 4700                        OR.B      #0x4700,D0
00005520   0000 469a                        OR.B      #0x469a,D0
00005524   0000 4700                        OR.B      #0x4700,D0
00005528   0000 4700                        OR.B      #0x4700,D0
0000552C   0000 4700                        OR.B      #0x4700,D0
00005530   0000 4700                        OR.B      #0x4700,D0
00005534   0000 4700                        OR.B      #0x4700,D0
00005538   0000 46b6                        OR.B      #0x46b6,D0
0000553C   0000 46c0                        OR.B      #0x46c0,D0
00005540   0000 46d2                        OR.B      #0x46d2,D0
00005544   0000 4700                        OR.B      #0x4700,D0
00005548   0000 4700                        OR.B      #0x4700,D0
0000554C   0000 4700                        OR.B      #0x4700,D0
00005550   0000 4700                        OR.B      #0x4700,D0
00005554   0000 4700                        OR.B      #0x4700,D0
00005558   0000 4700                        OR.B      #0x4700,D0
0000555C   0000 4700                        OR.B      #0x4700,D0
00005560   0000 4700                        OR.B      #0x4700,D0
00005564   0000 4700                        OR.B      #0x4700,D0
00005568   0000 4700                        OR.B      #0x4700,D0
0000556C   0000 46da                        OR.B      #0x46da,D0
00005570   0000 4700                        OR.B      #0x4700,D0
00005574   0000 46ec                        OR.B      #0x46ec,D0
00005578   0000 4700                        OR.B      #0x4700,D0
0000557C   0000 46f6                        OR.B      #0x46f6,D0
00005580   0d0a 0a45                        MOVEP.W   (0xa45,A2),D6
00005584   7863                             MOVEQ     #0x63,D4
00005586   6570                             BCS       B_55f8
00005588   7469                             MOVEQ     #0x69,D2
0000558A   6f6e                             BLE       B_55fa
0000558C   2024                             MOVE      -(A4),D0
0000558E   0020 6174                        OR.B      #0x6174,-(A0)
00005592   2075 7365 7220                   MOVE      ([D_7220,A5]),A0
00005598   6164                             BSR.S     B_55fe
0000559A   6472                             BCC       B_560e
0000559C   6573                             BCS       B_5611
0000559E   7320                             MOVEQ     #0x20,D1
000055A0   2400                             MOVE      D0,D2
000055A2   2e20                             MOVE      -(A0),D7
000055A4   2041                             MOVE      D1,A0
000055A6   626f                             BHI       B_5617
000055A8   7274                             MOVEQ     #0x74,D1
000055AA   6564                             BCS       B_5610
000055AC   2e00                             MOVE      D0,D7
000055AE   3638 4b00                        MOVE.W    A_4B00.W,D3
000055B2   2020                             MOVE      -(A0),D0
000055B4   2000                             MOVE      D0,D0
000055B6   5355                             SUBQ.W    #1,(A5)
000055B8   4200                             CLR.B     D0
000055BA   0000 0000                        OR.B      #0x0,D0
000055BE   0000 0000                        OR.B      #0x0,D0
000055C2   0000 0000                        OR.B      #0x0,D0
000055C6   0000 0000                        OR.B      #0x0,D0
000055CA   0000 0000                        OR.B      #0x0,D0
000055CE   0000 0000                        OR.B      #0x0,D0
000055D2   0000 0000                        OR.B      #0x0,D0
000055D6   0000 0000                        OR.B      #0x0,D0
000055DA   0000 0000                        OR.B      #0x0,D0
000055DE   0000 4027                        OR.B      #0x4027,D0
